
STM32_RS485_Subdevice.elf:     file format elf32-littlearm

Sections:
Idx Name          Size      VMA       LMA       File off  Algn
  0 .isr_vector   0000010c  08000000  08000000  00010000  2**0
                  CONTENTS, ALLOC, LOAD, READONLY, DATA
  1 .text         00002224  0800010c  0800010c  0001010c  2**2
                  CONTENTS, ALLOC, LOAD, READONLY, CODE
  2 .rodata       0000002c  08002330  08002330  00012330  2**2
                  CONTENTS, ALLOC, LOAD, READONLY, DATA
  3 .ARM.extab    00000000  0800235c  0800235c  00020010  2**0
                  CONTENTS
  4 .ARM          00000000  0800235c  0800235c  00020010  2**0
                  CONTENTS
  5 .preinit_array 00000000  0800235c  0800235c  00020010  2**0
                  CONTENTS, ALLOC, LOAD, DATA
  6 .init_array   00000004  0800235c  0800235c  0001235c  2**2
                  CONTENTS, ALLOC, LOAD, DATA
  7 .fini_array   00000004  08002360  08002360  00012360  2**2
                  CONTENTS, ALLOC, LOAD, DATA
  8 .data         00000010  20000000  08002364  00020000  2**2
                  CONTENTS, ALLOC, LOAD, DATA
  9 .bss          0000006c  20000010  08002374  00020010  2**2
                  ALLOC
 10 ._user_heap_stack 00000604  2000007c  08002374  0002007c  2**0
                  ALLOC
 11 .ARM.attributes 00000029  00000000  00000000  00020010  2**0
                  CONTENTS, READONLY
 12 .comment      00000043  00000000  00000000  00020039  2**0
                  CONTENTS, READONLY
 13 .debug_info   00007171  00000000  00000000  0002007c  2**0
                  CONTENTS, READONLY, DEBUGGING, OCTETS
 14 .debug_abbrev 00001563  00000000  00000000  000271ed  2**0
                  CONTENTS, READONLY, DEBUGGING, OCTETS
 15 .debug_aranges 00000678  00000000  00000000  00028750  2**3
                  CONTENTS, READONLY, DEBUGGING, OCTETS
 16 .debug_rnglists 000004f2  00000000  00000000  00028dc8  2**0
                  CONTENTS, READONLY, DEBUGGING, OCTETS
 17 .debug_macro  00015f5f  00000000  00000000  000292ba  2**0
                  CONTENTS, READONLY, DEBUGGING, OCTETS
 18 .debug_line   000081bd  00000000  00000000  0003f219  2**0
                  CONTENTS, READONLY, DEBUGGING, OCTETS
 19 .debug_str    0007e4fb  00000000  00000000  000473d6  2**0
                  CONTENTS, READONLY, DEBUGGING, OCTETS
 20 .debug_frame  000018fc  00000000  00000000  000c58d4  2**2
                  CONTENTS, READONLY, DEBUGGING, OCTETS
 21 .debug_line_str 00000061  00000000  00000000  000c71d0  2**0
                  CONTENTS, READONLY, DEBUGGING, OCTETS

Disassembly of section .text:

0800010c <__do_global_dtors_aux>:
 800010c:	b510      	push	{r4, lr}
 800010e:	4c05      	ldr	r4, [pc, #20]	; (8000124 <__do_global_dtors_aux+0x18>)
 8000110:	7823      	ldrb	r3, [r4, #0]
 8000112:	b933      	cbnz	r3, 8000122 <__do_global_dtors_aux+0x16>
 8000114:	4b04      	ldr	r3, [pc, #16]	; (8000128 <__do_global_dtors_aux+0x1c>)
 8000116:	b113      	cbz	r3, 800011e <__do_global_dtors_aux+0x12>
 8000118:	4804      	ldr	r0, [pc, #16]	; (800012c <__do_global_dtors_aux+0x20>)
 800011a:	f3af 8000 	nop.w
 800011e:	2301      	movs	r3, #1
 8000120:	7023      	strb	r3, [r4, #0]
 8000122:	bd10      	pop	{r4, pc}
 8000124:	20000010 	.word	0x20000010
 8000128:	00000000 	.word	0x00000000
 800012c:	08002318 	.word	0x08002318

08000130 <frame_dummy>:
 8000130:	b508      	push	{r3, lr}
 8000132:	4b03      	ldr	r3, [pc, #12]	; (8000140 <frame_dummy+0x10>)
 8000134:	b11b      	cbz	r3, 800013e <frame_dummy+0xe>
 8000136:	4903      	ldr	r1, [pc, #12]	; (8000144 <frame_dummy+0x14>)
 8000138:	4803      	ldr	r0, [pc, #12]	; (8000148 <frame_dummy+0x18>)
 800013a:	f3af 8000 	nop.w
 800013e:	bd08      	pop	{r3, pc}
 8000140:	00000000 	.word	0x00000000
 8000144:	20000014 	.word	0x20000014
 8000148:	08002318 	.word	0x08002318

0800014c <main>:
/**
  * @brief  The application entry point.
  * @retval int
  */
int main(void)
{
 800014c:	b580      	push	{r7, lr}
 800014e:	b082      	sub	sp, #8
 8000150:	af00      	add	r7, sp, #0
  /* USER CODE END 1 */

  /* MCU Configuration--------------------------------------------------------*/

  /* Reset of all peripherals, Initializes the Flash interface and the Systick. */
  HAL_Init();
 8000152:	f000 fa17 	bl	8000584 <HAL_Init>
  /* USER CODE BEGIN Init */

  /* USER CODE END Init */

  /* Configure the system clock */
  SystemClock_Config();
 8000156:	f000 f863 	bl	8000220 <SystemClock_Config>
  /* USER CODE BEGIN SysInit */

  /* USER CODE END SysInit */

  /* Initialize all configured peripherals */
  MX_GPIO_Init();
 800015a:	f000 f8c7 	bl	80002ec <MX_GPIO_Init>
  MX_USART1_UART_Init();
 800015e:	f000 f89b 	bl	8000298 <MX_USART1_UART_Init>
  /* USER CODE BEGIN 2 */
  HAL_GPIO_WritePin(RS_MODE_GPIO_Port, RS_MODE_Pin, GPIO_PIN_RESET);
 8000162:	2200      	movs	r2, #0
 8000164:	f44f 5100 	mov.w	r1, #8192	; 0x2000
 8000168:	4828      	ldr	r0, [pc, #160]	; (800020c <main+0xc0>)
 800016a:	f000 fdb1 	bl	8000cd0 <HAL_GPIO_WritePin>

  /* Infinite loop */
  /* USER CODE BEGIN WHILE */
  while (1)
  {
	  for(int i = 0; i < 4; ++i){
 800016e:	2300      	movs	r3, #0
 8000170:	607b      	str	r3, [r7, #4]
 8000172:	e015      	b.n	80001a0 <main+0x54>
		  HAL_GPIO_WritePin(LED1_GPIO_Port, LED1_Pin<<i, (leds>>i & 0x01));
 8000174:	2240      	movs	r2, #64	; 0x40
 8000176:	687b      	ldr	r3, [r7, #4]
 8000178:	fa02 f303 	lsl.w	r3, r2, r3
 800017c:	b299      	uxth	r1, r3
 800017e:	4b24      	ldr	r3, [pc, #144]	; (8000210 <main+0xc4>)
 8000180:	781b      	ldrb	r3, [r3, #0]
 8000182:	461a      	mov	r2, r3
 8000184:	687b      	ldr	r3, [r7, #4]
 8000186:	fa42 f303 	asr.w	r3, r2, r3
 800018a:	b2db      	uxtb	r3, r3
 800018c:	f003 0301 	and.w	r3, r3, #1
 8000190:	b2db      	uxtb	r3, r3
 8000192:	461a      	mov	r2, r3
 8000194:	481d      	ldr	r0, [pc, #116]	; (800020c <main+0xc0>)
 8000196:	f000 fd9b 	bl	8000cd0 <HAL_GPIO_WritePin>
	  for(int i = 0; i < 4; ++i){
 800019a:	687b      	ldr	r3, [r7, #4]
 800019c:	3301      	adds	r3, #1
 800019e:	607b      	str	r3, [r7, #4]
 80001a0:	687b      	ldr	r3, [r7, #4]
 80001a2:	2b03      	cmp	r3, #3
 80001a4:	dde6      	ble.n	8000174 <main+0x28>
	  }
	  if(HAL_UART_Receive(&huart1, data, DATALEN, 10) == HAL_OK){
 80001a6:	230a      	movs	r3, #10
 80001a8:	2202      	movs	r2, #2
 80001aa:	491a      	ldr	r1, [pc, #104]	; (8000214 <main+0xc8>)
 80001ac:	481a      	ldr	r0, [pc, #104]	; (8000218 <main+0xcc>)
 80001ae:	f001 faa4 	bl	80016fa <HAL_UART_Receive>
 80001b2:	4603      	mov	r3, r0
 80001b4:	2b00      	cmp	r3, #0
 80001b6:	d1da      	bne.n	800016e <main+0x22>
		  if((data[0]) == ADDRESS){
 80001b8:	4b16      	ldr	r3, [pc, #88]	; (8000214 <main+0xc8>)
 80001ba:	781b      	ldrb	r3, [r3, #0]
 80001bc:	2b01      	cmp	r3, #1
 80001be:	d104      	bne.n	80001ca <main+0x7e>
			  leds = data[1];
 80001c0:	4b14      	ldr	r3, [pc, #80]	; (8000214 <main+0xc8>)
 80001c2:	785a      	ldrb	r2, [r3, #1]
 80001c4:	4b12      	ldr	r3, [pc, #72]	; (8000210 <main+0xc4>)
 80001c6:	701a      	strb	r2, [r3, #0]
 80001c8:	e019      	b.n	80001fe <main+0xb2>
		  }
		  else if(data[0] == 0xFF && data[1] == ADDRESS){
 80001ca:	4b12      	ldr	r3, [pc, #72]	; (8000214 <main+0xc8>)
 80001cc:	781b      	ldrb	r3, [r3, #0]
 80001ce:	2bff      	cmp	r3, #255	; 0xff
 80001d0:	d115      	bne.n	80001fe <main+0xb2>
 80001d2:	4b10      	ldr	r3, [pc, #64]	; (8000214 <main+0xc8>)
 80001d4:	785b      	ldrb	r3, [r3, #1]
 80001d6:	2b01      	cmp	r3, #1
 80001d8:	d111      	bne.n	80001fe <main+0xb2>
			  HAL_GPIO_WritePin(RS_MODE_GPIO_Port, RS_MODE_Pin, GPIO_PIN_SET);
 80001da:	2201      	movs	r2, #1
 80001dc:	f44f 5100 	mov.w	r1, #8192	; 0x2000
 80001e0:	480a      	ldr	r0, [pc, #40]	; (800020c <main+0xc0>)
 80001e2:	f000 fd75 	bl	8000cd0 <HAL_GPIO_WritePin>
			  HAL_UART_Transmit(&huart1, &leds, 1, 30);
 80001e6:	231e      	movs	r3, #30
 80001e8:	2201      	movs	r2, #1
 80001ea:	4909      	ldr	r1, [pc, #36]	; (8000210 <main+0xc4>)
 80001ec:	480a      	ldr	r0, [pc, #40]	; (8000218 <main+0xcc>)
 80001ee:	f001 fa01 	bl	80015f4 <HAL_UART_Transmit>
			  HAL_GPIO_WritePin(RS_MODE_GPIO_Port, RS_MODE_Pin, GPIO_PIN_RESET);
 80001f2:	2200      	movs	r2, #0
 80001f4:	f44f 5100 	mov.w	r1, #8192	; 0x2000
 80001f8:	4804      	ldr	r0, [pc, #16]	; (800020c <main+0xc0>)
 80001fa:	f000 fd69 	bl	8000cd0 <HAL_GPIO_WritePin>
		  }

		  HAL_GPIO_TogglePin(LED_GPIO_Port, LED_Pin);
 80001fe:	f44f 5100 	mov.w	r1, #8192	; 0x2000
 8000202:	4806      	ldr	r0, [pc, #24]	; (800021c <main+0xd0>)
 8000204:	f000 fd7c 	bl	8000d00 <HAL_GPIO_TogglePin>
	  for(int i = 0; i < 4; ++i){
 8000208:	e7b1      	b.n	800016e <main+0x22>
 800020a:	bf00      	nop
 800020c:	40010c00 	.word	0x40010c00
 8000210:	20000000 	.word	0x20000000
 8000214:	20000074 	.word	0x20000074
 8000218:	2000002c 	.word	0x2000002c
 800021c:	40011000 	.word	0x40011000

08000220 <SystemClock_Config>:
/**
  * @brief System Clock Configuration
  * @retval None
  */
void SystemClock_Config(void)
{
 8000220:	b580      	push	{r7, lr}
 8000222:	b090      	sub	sp, #64	; 0x40
 8000224:	af00      	add	r7, sp, #0
  RCC_OscInitTypeDef RCC_OscInitStruct = {0};
 8000226:	f107 0318 	add.w	r3, r7, #24
 800022a:	2228      	movs	r2, #40	; 0x28
 800022c:	2100      	movs	r1, #0
 800022e:	4618      	mov	r0, r3
 8000230:	f002 f846 	bl	80022c0 <memset>
  RCC_ClkInitTypeDef RCC_ClkInitStruct = {0};
 8000234:	1d3b      	adds	r3, r7, #4
 8000236:	2200      	movs	r2, #0
 8000238:	601a      	str	r2, [r3, #0]
 800023a:	605a      	str	r2, [r3, #4]
 800023c:	609a      	str	r2, [r3, #8]
 800023e:	60da      	str	r2, [r3, #12]
 8000240:	611a      	str	r2, [r3, #16]

  /** Initializes the RCC Oscillators according to the specified parameters
  * in the RCC_OscInitTypeDef structure.
  */
  RCC_OscInitStruct.OscillatorType = RCC_OSCILLATORTYPE_HSI;
 8000242:	2302      	movs	r3, #2
 8000244:	61bb      	str	r3, [r7, #24]
  RCC_OscInitStruct.HSIState = RCC_HSI_ON;
 8000246:	2301      	movs	r3, #1
 8000248:	62bb      	str	r3, [r7, #40]	; 0x28
  RCC_OscInitStruct.HSICalibrationValue = RCC_HSICALIBRATION_DEFAULT;
 800024a:	2310      	movs	r3, #16
 800024c:	62fb      	str	r3, [r7, #44]	; 0x2c
  RCC_OscInitStruct.PLL.PLLState = RCC_PLL_NONE;
 800024e:	2300      	movs	r3, #0
 8000250:	637b      	str	r3, [r7, #52]	; 0x34
  if (HAL_RCC_OscConfig(&RCC_OscInitStruct) != HAL_OK)
 8000252:	f107 0318 	add.w	r3, r7, #24
 8000256:	4618      	mov	r0, r3
 8000258:	f000 fd6c 	bl	8000d34 <HAL_RCC_OscConfig>
 800025c:	4603      	mov	r3, r0
 800025e:	2b00      	cmp	r3, #0
 8000260:	d001      	beq.n	8000266 <SystemClock_Config+0x46>
  {
    Error_Handler();
 8000262:	f000 f8a5 	bl	80003b0 <Error_Handler>
  }

  /** Initializes the CPU, AHB and APB buses clocks
  */
  RCC_ClkInitStruct.ClockType = RCC_CLOCKTYPE_HCLK|RCC_CLOCKTYPE_SYSCLK
 8000266:	230f      	movs	r3, #15
 8000268:	607b      	str	r3, [r7, #4]
                              |RCC_CLOCKTYPE_PCLK1|RCC_CLOCKTYPE_PCLK2;
  RCC_ClkInitStruct.SYSCLKSource = RCC_SYSCLKSOURCE_HSI;
 800026a:	2300      	movs	r3, #0
 800026c:	60bb      	str	r3, [r7, #8]
  RCC_ClkInitStruct.AHBCLKDivider = RCC_SYSCLK_DIV1;
 800026e:	2300      	movs	r3, #0
 8000270:	60fb      	str	r3, [r7, #12]
  RCC_ClkInitStruct.APB1CLKDivider = RCC_HCLK_DIV1;
 8000272:	2300      	movs	r3, #0
 8000274:	613b      	str	r3, [r7, #16]
  RCC_ClkInitStruct.APB2CLKDivider = RCC_HCLK_DIV1;
 8000276:	2300      	movs	r3, #0
 8000278:	617b      	str	r3, [r7, #20]

  if (HAL_RCC_ClockConfig(&RCC_ClkInitStruct, FLASH_LATENCY_0) != HAL_OK)
 800027a:	1d3b      	adds	r3, r7, #4
 800027c:	2100      	movs	r1, #0
 800027e:	4618      	mov	r0, r3
 8000280:	f000 ffda 	bl	8001238 <HAL_RCC_ClockConfig>
 8000284:	4603      	mov	r3, r0
 8000286:	2b00      	cmp	r3, #0
 8000288:	d001      	beq.n	800028e <SystemClock_Config+0x6e>
  {
    Error_Handler();
 800028a:	f000 f891 	bl	80003b0 <Error_Handler>
  }
}
 800028e:	bf00      	nop
 8000290:	3740      	adds	r7, #64	; 0x40
 8000292:	46bd      	mov	sp, r7
 8000294:	bd80      	pop	{r7, pc}
	...

08000298 <MX_USART1_UART_Init>:
  * @brief USART1 Initialization Function
  * @param None
  * @retval None
  */
static void MX_USART1_UART_Init(void)
{
 8000298:	b580      	push	{r7, lr}
 800029a:	af00      	add	r7, sp, #0
  /* USER CODE END USART1_Init 0 */

  /* USER CODE BEGIN USART1_Init 1 */

  /* USER CODE END USART1_Init 1 */
  huart1.Instance = USART1;
 800029c:	4b11      	ldr	r3, [pc, #68]	; (80002e4 <MX_USART1_UART_Init+0x4c>)
 800029e:	4a12      	ldr	r2, [pc, #72]	; (80002e8 <MX_USART1_UART_Init+0x50>)
 80002a0:	601a      	str	r2, [r3, #0]
  huart1.Init.BaudRate = 115200;
 80002a2:	4b10      	ldr	r3, [pc, #64]	; (80002e4 <MX_USART1_UART_Init+0x4c>)
 80002a4:	f44f 32e1 	mov.w	r2, #115200	; 0x1c200
 80002a8:	605a      	str	r2, [r3, #4]
  huart1.Init.WordLength = UART_WORDLENGTH_8B;
 80002aa:	4b0e      	ldr	r3, [pc, #56]	; (80002e4 <MX_USART1_UART_Init+0x4c>)
 80002ac:	2200      	movs	r2, #0
 80002ae:	609a      	str	r2, [r3, #8]
  huart1.Init.StopBits = UART_STOPBITS_1;
 80002b0:	4b0c      	ldr	r3, [pc, #48]	; (80002e4 <MX_USART1_UART_Init+0x4c>)
 80002b2:	2200      	movs	r2, #0
 80002b4:	60da      	str	r2, [r3, #12]
  huart1.Init.Parity = UART_PARITY_NONE;
 80002b6:	4b0b      	ldr	r3, [pc, #44]	; (80002e4 <MX_USART1_UART_Init+0x4c>)
 80002b8:	2200      	movs	r2, #0
 80002ba:	611a      	str	r2, [r3, #16]
  huart1.Init.Mode = UART_MODE_TX_RX;
 80002bc:	4b09      	ldr	r3, [pc, #36]	; (80002e4 <MX_USART1_UART_Init+0x4c>)
 80002be:	220c      	movs	r2, #12
 80002c0:	615a      	str	r2, [r3, #20]
  huart1.Init.HwFlowCtl = UART_HWCONTROL_NONE;
 80002c2:	4b08      	ldr	r3, [pc, #32]	; (80002e4 <MX_USART1_UART_Init+0x4c>)
 80002c4:	2200      	movs	r2, #0
 80002c6:	619a      	str	r2, [r3, #24]
  huart1.Init.OverSampling = UART_OVERSAMPLING_16;
 80002c8:	4b06      	ldr	r3, [pc, #24]	; (80002e4 <MX_USART1_UART_Init+0x4c>)
 80002ca:	2200      	movs	r2, #0
 80002cc:	61da      	str	r2, [r3, #28]
  if (HAL_UART_Init(&huart1) != HAL_OK)
 80002ce:	4805      	ldr	r0, [pc, #20]	; (80002e4 <MX_USART1_UART_Init+0x4c>)
 80002d0:	f001 f940 	bl	8001554 <HAL_UART_Init>
 80002d4:	4603      	mov	r3, r0
 80002d6:	2b00      	cmp	r3, #0
 80002d8:	d001      	beq.n	80002de <MX_USART1_UART_Init+0x46>
  {
    Error_Handler();
 80002da:	f000 f869 	bl	80003b0 <Error_Handler>
  }
  /* USER CODE BEGIN USART1_Init 2 */

  /* USER CODE END USART1_Init 2 */

}
 80002de:	bf00      	nop
 80002e0:	bd80      	pop	{r7, pc}
 80002e2:	bf00      	nop
 80002e4:	2000002c 	.word	0x2000002c
 80002e8:	40013800 	.word	0x40013800

080002ec <MX_GPIO_Init>:
  * @brief GPIO Initialization Function
  * @param None
  * @retval None
  */
static void MX_GPIO_Init(void)
{
 80002ec:	b580      	push	{r7, lr}
 80002ee:	b088      	sub	sp, #32
 80002f0:	af00      	add	r7, sp, #0
  GPIO_InitTypeDef GPIO_InitStruct = {0};
 80002f2:	f107 0310 	add.w	r3, r7, #16
 80002f6:	2200      	movs	r2, #0
 80002f8:	601a      	str	r2, [r3, #0]
 80002fa:	605a      	str	r2, [r3, #4]
 80002fc:	609a      	str	r2, [r3, #8]
 80002fe:	60da      	str	r2, [r3, #12]
/* USER CODE BEGIN MX_GPIO_Init_1 */
/* USER CODE END MX_GPIO_Init_1 */

  /* GPIO Ports Clock Enable */
  __HAL_RCC_GPIOC_CLK_ENABLE();
 8000300:	4b28      	ldr	r3, [pc, #160]	; (80003a4 <MX_GPIO_Init+0xb8>)
 8000302:	699b      	ldr	r3, [r3, #24]
 8000304:	4a27      	ldr	r2, [pc, #156]	; (80003a4 <MX_GPIO_Init+0xb8>)
 8000306:	f043 0310 	orr.w	r3, r3, #16
 800030a:	6193      	str	r3, [r2, #24]
 800030c:	4b25      	ldr	r3, [pc, #148]	; (80003a4 <MX_GPIO_Init+0xb8>)
 800030e:	699b      	ldr	r3, [r3, #24]
 8000310:	f003 0310 	and.w	r3, r3, #16
 8000314:	60fb      	str	r3, [r7, #12]
 8000316:	68fb      	ldr	r3, [r7, #12]
  __HAL_RCC_GPIOB_CLK_ENABLE();
 8000318:	4b22      	ldr	r3, [pc, #136]	; (80003a4 <MX_GPIO_Init+0xb8>)
 800031a:	699b      	ldr	r3, [r3, #24]
 800031c:	4a21      	ldr	r2, [pc, #132]	; (80003a4 <MX_GPIO_Init+0xb8>)
 800031e:	f043 0308 	orr.w	r3, r3, #8
 8000322:	6193      	str	r3, [r2, #24]
 8000324:	4b1f      	ldr	r3, [pc, #124]	; (80003a4 <MX_GPIO_Init+0xb8>)
 8000326:	699b      	ldr	r3, [r3, #24]
 8000328:	f003 0308 	and.w	r3, r3, #8
 800032c:	60bb      	str	r3, [r7, #8]
 800032e:	68bb      	ldr	r3, [r7, #8]
  __HAL_RCC_GPIOA_CLK_ENABLE();
 8000330:	4b1c      	ldr	r3, [pc, #112]	; (80003a4 <MX_GPIO_Init+0xb8>)
 8000332:	699b      	ldr	r3, [r3, #24]
 8000334:	4a1b      	ldr	r2, [pc, #108]	; (80003a4 <MX_GPIO_Init+0xb8>)
 8000336:	f043 0304 	orr.w	r3, r3, #4
 800033a:	6193      	str	r3, [r2, #24]
 800033c:	4b19      	ldr	r3, [pc, #100]	; (80003a4 <MX_GPIO_Init+0xb8>)
 800033e:	699b      	ldr	r3, [r3, #24]
 8000340:	f003 0304 	and.w	r3, r3, #4
 8000344:	607b      	str	r3, [r7, #4]
 8000346:	687b      	ldr	r3, [r7, #4]

  /*Configure GPIO pin Output Level */
  HAL_GPIO_WritePin(LED_GPIO_Port, LED_Pin, GPIO_PIN_RESET);
 8000348:	2200      	movs	r2, #0
 800034a:	f44f 5100 	mov.w	r1, #8192	; 0x2000
 800034e:	4816      	ldr	r0, [pc, #88]	; (80003a8 <MX_GPIO_Init+0xbc>)
 8000350:	f000 fcbe 	bl	8000cd0 <HAL_GPIO_WritePin>

  /*Configure GPIO pin Output Level */
  HAL_GPIO_WritePin(GPIOB, RS_MODE_Pin|LED1_Pin|LED2_Pin|LED3_Pin
 8000354:	2200      	movs	r2, #0
 8000356:	f44f 510f 	mov.w	r1, #9152	; 0x23c0
 800035a:	4814      	ldr	r0, [pc, #80]	; (80003ac <MX_GPIO_Init+0xc0>)
 800035c:	f000 fcb8 	bl	8000cd0 <HAL_GPIO_WritePin>
                          |LED4_Pin, GPIO_PIN_RESET);

  /*Configure GPIO pin : LED_Pin */
  GPIO_InitStruct.Pin = LED_Pin;
 8000360:	f44f 5300 	mov.w	r3, #8192	; 0x2000
 8000364:	613b      	str	r3, [r7, #16]
  GPIO_InitStruct.Mode = GPIO_MODE_OUTPUT_PP;
 8000366:	2301      	movs	r3, #1
 8000368:	617b      	str	r3, [r7, #20]
  GPIO_InitStruct.Pull = GPIO_NOPULL;
 800036a:	2300      	movs	r3, #0
 800036c:	61bb      	str	r3, [r7, #24]
  GPIO_InitStruct.Speed = GPIO_SPEED_FREQ_LOW;
 800036e:	2302      	movs	r3, #2
 8000370:	61fb      	str	r3, [r7, #28]
  HAL_GPIO_Init(LED_GPIO_Port, &GPIO_InitStruct);
 8000372:	f107 0310 	add.w	r3, r7, #16
 8000376:	4619      	mov	r1, r3
 8000378:	480b      	ldr	r0, [pc, #44]	; (80003a8 <MX_GPIO_Init+0xbc>)
 800037a:	f000 fb25 	bl	80009c8 <HAL_GPIO_Init>

  /*Configure GPIO pins : RS_MODE_Pin LED1_Pin LED2_Pin LED3_Pin
                           LED4_Pin */
  GPIO_InitStruct.Pin = RS_MODE_Pin|LED1_Pin|LED2_Pin|LED3_Pin
 800037e:	f44f 530f 	mov.w	r3, #9152	; 0x23c0
 8000382:	613b      	str	r3, [r7, #16]
                          |LED4_Pin;
  GPIO_InitStruct.Mode = GPIO_MODE_OUTPUT_PP;
 8000384:	2301      	movs	r3, #1
 8000386:	617b      	str	r3, [r7, #20]
  GPIO_InitStruct.Pull = GPIO_NOPULL;
 8000388:	2300      	movs	r3, #0
 800038a:	61bb      	str	r3, [r7, #24]
  GPIO_InitStruct.Speed = GPIO_SPEED_FREQ_LOW;
 800038c:	2302      	movs	r3, #2
 800038e:	61fb      	str	r3, [r7, #28]
  HAL_GPIO_Init(GPIOB, &GPIO_InitStruct);
 8000390:	f107 0310 	add.w	r3, r7, #16
 8000394:	4619      	mov	r1, r3
 8000396:	4805      	ldr	r0, [pc, #20]	; (80003ac <MX_GPIO_Init+0xc0>)
 8000398:	f000 fb16 	bl	80009c8 <HAL_GPIO_Init>

/* USER CODE BEGIN MX_GPIO_Init_2 */
/* USER CODE END MX_GPIO_Init_2 */
}
 800039c:	bf00      	nop
 800039e:	3720      	adds	r7, #32
 80003a0:	46bd      	mov	sp, r7
 80003a2:	bd80      	pop	{r7, pc}
 80003a4:	40021000 	.word	0x40021000
 80003a8:	40011000 	.word	0x40011000
 80003ac:	40010c00 	.word	0x40010c00

080003b0 <Error_Handler>:
/**
  * @brief  This function is executed in case of error occurrence.
  * @retval None
  */
void Error_Handler(void)
{
 80003b0:	b480      	push	{r7}
 80003b2:	af00      	add	r7, sp, #0
  \details Disables IRQ interrupts by setting the I-bit in the CPSR.
           Can only be executed in Privileged modes.
 */
__STATIC_FORCEINLINE void __disable_irq(void)
{
  __ASM volatile ("cpsid i" : : : "memory");
 80003b4:	b672      	cpsid	i
}
 80003b6:	bf00      	nop
  /* USER CODE BEGIN Error_Handler_Debug */
  /* User can add his own implementation to report the HAL error return state */
  __disable_irq();
  while (1)
 80003b8:	e7fe      	b.n	80003b8 <Error_Handler+0x8>
	...

080003bc <HAL_MspInit>:
/* USER CODE END 0 */
/**
  * Initializes the Global MSP.
  */
void HAL_MspInit(void)
{
 80003bc:	b480      	push	{r7}
 80003be:	b085      	sub	sp, #20
 80003c0:	af00      	add	r7, sp, #0
  /* USER CODE BEGIN MspInit 0 */

  /* USER CODE END MspInit 0 */

  __HAL_RCC_AFIO_CLK_ENABLE();
 80003c2:	4b15      	ldr	r3, [pc, #84]	; (8000418 <HAL_MspInit+0x5c>)
 80003c4:	699b      	ldr	r3, [r3, #24]
 80003c6:	4a14      	ldr	r2, [pc, #80]	; (8000418 <HAL_MspInit+0x5c>)
 80003c8:	f043 0301 	orr.w	r3, r3, #1
 80003cc:	6193      	str	r3, [r2, #24]
 80003ce:	4b12      	ldr	r3, [pc, #72]	; (8000418 <HAL_MspInit+0x5c>)
 80003d0:	699b      	ldr	r3, [r3, #24]
 80003d2:	f003 0301 	and.w	r3, r3, #1
 80003d6:	60bb      	str	r3, [r7, #8]
 80003d8:	68bb      	ldr	r3, [r7, #8]
  __HAL_RCC_PWR_CLK_ENABLE();
 80003da:	4b0f      	ldr	r3, [pc, #60]	; (8000418 <HAL_MspInit+0x5c>)
 80003dc:	69db      	ldr	r3, [r3, #28]
 80003de:	4a0e      	ldr	r2, [pc, #56]	; (8000418 <HAL_MspInit+0x5c>)
 80003e0:	f043 5380 	orr.w	r3, r3, #268435456	; 0x10000000
 80003e4:	61d3      	str	r3, [r2, #28]
 80003e6:	4b0c      	ldr	r3, [pc, #48]	; (8000418 <HAL_MspInit+0x5c>)
 80003e8:	69db      	ldr	r3, [r3, #28]
 80003ea:	f003 5380 	and.w	r3, r3, #268435456	; 0x10000000
 80003ee:	607b      	str	r3, [r7, #4]
 80003f0:	687b      	ldr	r3, [r7, #4]

  /* System interrupt init*/

  /** NOJTAG: JTAG-DP Disabled and SW-DP Enabled
  */
  __HAL_AFIO_REMAP_SWJ_NOJTAG();
 80003f2:	4b0a      	ldr	r3, [pc, #40]	; (800041c <HAL_MspInit+0x60>)
 80003f4:	685b      	ldr	r3, [r3, #4]
 80003f6:	60fb      	str	r3, [r7, #12]
 80003f8:	68fb      	ldr	r3, [r7, #12]
 80003fa:	f023 63e0 	bic.w	r3, r3, #117440512	; 0x7000000
 80003fe:	60fb      	str	r3, [r7, #12]
 8000400:	68fb      	ldr	r3, [r7, #12]
 8000402:	f043 7300 	orr.w	r3, r3, #33554432	; 0x2000000
 8000406:	60fb      	str	r3, [r7, #12]
 8000408:	4a04      	ldr	r2, [pc, #16]	; (800041c <HAL_MspInit+0x60>)
 800040a:	68fb      	ldr	r3, [r7, #12]
 800040c:	6053      	str	r3, [r2, #4]

  /* USER CODE BEGIN MspInit 1 */

  /* USER CODE END MspInit 1 */
}
 800040e:	bf00      	nop
 8000410:	3714      	adds	r7, #20
 8000412:	46bd      	mov	sp, r7
 8000414:	bc80      	pop	{r7}
 8000416:	4770      	bx	lr
 8000418:	40021000 	.word	0x40021000
 800041c:	40010000 	.word	0x40010000

08000420 <HAL_UART_MspInit>:
* This function configures the hardware resources used in this example
* @param huart: UART handle pointer
* @retval None
*/
void HAL_UART_MspInit(UART_HandleTypeDef* huart)
{
 8000420:	b580      	push	{r7, lr}
 8000422:	b088      	sub	sp, #32
 8000424:	af00      	add	r7, sp, #0
 8000426:	6078      	str	r0, [r7, #4]
  GPIO_InitTypeDef GPIO_InitStruct = {0};
 8000428:	f107 0310 	add.w	r3, r7, #16
 800042c:	2200      	movs	r2, #0
 800042e:	601a      	str	r2, [r3, #0]
 8000430:	605a      	str	r2, [r3, #4]
 8000432:	609a      	str	r2, [r3, #8]
 8000434:	60da      	str	r2, [r3, #12]
  if(huart->Instance==USART1)
 8000436:	687b      	ldr	r3, [r7, #4]
 8000438:	681b      	ldr	r3, [r3, #0]
 800043a:	4a20      	ldr	r2, [pc, #128]	; (80004bc <HAL_UART_MspInit+0x9c>)
 800043c:	4293      	cmp	r3, r2
 800043e:	d139      	bne.n	80004b4 <HAL_UART_MspInit+0x94>
  {
  /* USER CODE BEGIN USART1_MspInit 0 */

  /* USER CODE END USART1_MspInit 0 */
    /* Peripheral clock enable */
    __HAL_RCC_USART1_CLK_ENABLE();
 8000440:	4b1f      	ldr	r3, [pc, #124]	; (80004c0 <HAL_UART_MspInit+0xa0>)
 8000442:	699b      	ldr	r3, [r3, #24]
 8000444:	4a1e      	ldr	r2, [pc, #120]	; (80004c0 <HAL_UART_MspInit+0xa0>)
 8000446:	f443 4380 	orr.w	r3, r3, #16384	; 0x4000
 800044a:	6193      	str	r3, [r2, #24]
 800044c:	4b1c      	ldr	r3, [pc, #112]	; (80004c0 <HAL_UART_MspInit+0xa0>)
 800044e:	699b      	ldr	r3, [r3, #24]
 8000450:	f403 4380 	and.w	r3, r3, #16384	; 0x4000
 8000454:	60fb      	str	r3, [r7, #12]
 8000456:	68fb      	ldr	r3, [r7, #12]

    __HAL_RCC_GPIOA_CLK_ENABLE();
 8000458:	4b19      	ldr	r3, [pc, #100]	; (80004c0 <HAL_UART_MspInit+0xa0>)
 800045a:	699b      	ldr	r3, [r3, #24]
 800045c:	4a18      	ldr	r2, [pc, #96]	; (80004c0 <HAL_UART_MspInit+0xa0>)
 800045e:	f043 0304 	orr.w	r3, r3, #4
 8000462:	6193      	str	r3, [r2, #24]
 8000464:	4b16      	ldr	r3, [pc, #88]	; (80004c0 <HAL_UART_MspInit+0xa0>)
 8000466:	699b      	ldr	r3, [r3, #24]
 8000468:	f003 0304 	and.w	r3, r3, #4
 800046c:	60bb      	str	r3, [r7, #8]
 800046e:	68bb      	ldr	r3, [r7, #8]
    /**USART1 GPIO Configuration
    PA9     ------> USART1_TX
    PA10     ------> USART1_RX
    */
    GPIO_InitStruct.Pin = GPIO_PIN_9;
 8000470:	f44f 7300 	mov.w	r3, #512	; 0x200
 8000474:	613b      	str	r3, [r7, #16]
    GPIO_InitStruct.Mode = GPIO_MODE_AF_PP;
 8000476:	2302      	movs	r3, #2
 8000478:	617b      	str	r3, [r7, #20]
    GPIO_InitStruct.Speed = GPIO_SPEED_FREQ_HIGH;
 800047a:	2303      	movs	r3, #3
 800047c:	61fb      	str	r3, [r7, #28]
    HAL_GPIO_Init(GPIOA, &GPIO_InitStruct);
 800047e:	f107 0310 	add.w	r3, r7, #16
 8000482:	4619      	mov	r1, r3
 8000484:	480f      	ldr	r0, [pc, #60]	; (80004c4 <HAL_UART_MspInit+0xa4>)
 8000486:	f000 fa9f 	bl	80009c8 <HAL_GPIO_Init>

    GPIO_InitStruct.Pin = GPIO_PIN_10;
 800048a:	f44f 6380 	mov.w	r3, #1024	; 0x400
 800048e:	613b      	str	r3, [r7, #16]
    GPIO_InitStruct.Mode = GPIO_MODE_INPUT;
 8000490:	2300      	movs	r3, #0
 8000492:	617b      	str	r3, [r7, #20]
    GPIO_InitStruct.Pull = GPIO_NOPULL;
 8000494:	2300      	movs	r3, #0
 8000496:	61bb      	str	r3, [r7, #24]
    HAL_GPIO_Init(GPIOA, &GPIO_InitStruct);
 8000498:	f107 0310 	add.w	r3, r7, #16
 800049c:	4619      	mov	r1, r3
 800049e:	4809      	ldr	r0, [pc, #36]	; (80004c4 <HAL_UART_MspInit+0xa4>)
 80004a0:	f000 fa92 	bl	80009c8 <HAL_GPIO_Init>

    /* USART1 interrupt Init */
    HAL_NVIC_SetPriority(USART1_IRQn, 0, 0);
 80004a4:	2200      	movs	r2, #0
 80004a6:	2100      	movs	r1, #0
 80004a8:	2025      	movs	r0, #37	; 0x25
 80004aa:	f000 f9a4 	bl	80007f6 <HAL_NVIC_SetPriority>
    HAL_NVIC_EnableIRQ(USART1_IRQn);
 80004ae:	2025      	movs	r0, #37	; 0x25
 80004b0:	f000 f9bd 	bl	800082e <HAL_NVIC_EnableIRQ>
  /* USER CODE BEGIN USART1_MspInit 1 */

  /* USER CODE END USART1_MspInit 1 */
  }

}
 80004b4:	bf00      	nop
 80004b6:	3720      	adds	r7, #32
 80004b8:	46bd      	mov	sp, r7
 80004ba:	bd80      	pop	{r7, pc}
 80004bc:	40013800 	.word	0x40013800
 80004c0:	40021000 	.word	0x40021000
 80004c4:	40010800 	.word	0x40010800

080004c8 <NMI_Handler>:
/******************************************************************************/
/**
  * @brief This function handles Non maskable interrupt.
  */
void NMI_Handler(void)
{
 80004c8:	b480      	push	{r7}
 80004ca:	af00      	add	r7, sp, #0
  /* USER CODE BEGIN NonMaskableInt_IRQn 0 */

  /* USER CODE END NonMaskableInt_IRQn 0 */
  /* USER CODE BEGIN NonMaskableInt_IRQn 1 */
   while (1)
 80004cc:	e7fe      	b.n	80004cc <NMI_Handler+0x4>

080004ce <HardFault_Handler>:

/**
  * @brief This function handles Hard fault interrupt.
  */
void HardFault_Handler(void)
{
 80004ce:	b480      	push	{r7}
 80004d0:	af00      	add	r7, sp, #0
  /* USER CODE BEGIN HardFault_IRQn 0 */

  /* USER CODE END HardFault_IRQn 0 */
  while (1)
 80004d2:	e7fe      	b.n	80004d2 <HardFault_Handler+0x4>

080004d4 <MemManage_Handler>:

/**
  * @brief This function handles Memory management fault.
  */
void MemManage_Handler(void)
{
 80004d4:	b480      	push	{r7}
 80004d6:	af00      	add	r7, sp, #0
  /* USER CODE BEGIN MemoryManagement_IRQn 0 */

  /* USER CODE END MemoryManagement_IRQn 0 */
  while (1)
 80004d8:	e7fe      	b.n	80004d8 <MemManage_Handler+0x4>

080004da <BusFault_Handler>:

/**
  * @brief This function handles Prefetch fault, memory access fault.
  */
void BusFault_Handler(void)
{
 80004da:	b480      	push	{r7}
 80004dc:	af00      	add	r7, sp, #0
  /* USER CODE BEGIN BusFault_IRQn 0 */

  /* USER CODE END BusFault_IRQn 0 */
  while (1)
 80004de:	e7fe      	b.n	80004de <BusFault_Handler+0x4>

080004e0 <UsageFault_Handler>:

/**
  * @brief This function handles Undefined instruction or illegal state.
  */
void UsageFault_Handler(void)
{
 80004e0:	b480      	push	{r7}
 80004e2:	af00      	add	r7, sp, #0
  /* USER CODE BEGIN UsageFault_IRQn 0 */

  /* USER CODE END UsageFault_IRQn 0 */
  while (1)
 80004e4:	e7fe      	b.n	80004e4 <UsageFault_Handler+0x4>

080004e6 <SVC_Handler>:

/**
  * @brief This function handles System service call via SWI instruction.
  */
void SVC_Handler(void)
{
 80004e6:	b480      	push	{r7}
 80004e8:	af00      	add	r7, sp, #0

  /* USER CODE END SVCall_IRQn 0 */
  /* USER CODE BEGIN SVCall_IRQn 1 */

  /* USER CODE END SVCall_IRQn 1 */
}
 80004ea:	bf00      	nop
 80004ec:	46bd      	mov	sp, r7
 80004ee:	bc80      	pop	{r7}
 80004f0:	4770      	bx	lr

080004f2 <DebugMon_Handler>:

/**
  * @brief This function handles Debug monitor.
  */
void DebugMon_Handler(void)
{
 80004f2:	b480      	push	{r7}
 80004f4:	af00      	add	r7, sp, #0

  /* USER CODE END DebugMonitor_IRQn 0 */
  /* USER CODE BEGIN DebugMonitor_IRQn 1 */

  /* USER CODE END DebugMonitor_IRQn 1 */
}
 80004f6:	bf00      	nop
 80004f8:	46bd      	mov	sp, r7
 80004fa:	bc80      	pop	{r7}
 80004fc:	4770      	bx	lr

080004fe <PendSV_Handler>:

/**
  * @brief This function handles Pendable request for system service.
  */
void PendSV_Handler(void)
{
 80004fe:	b480      	push	{r7}
 8000500:	af00      	add	r7, sp, #0

  /* USER CODE END PendSV_IRQn 0 */
  /* USER CODE BEGIN PendSV_IRQn 1 */

  /* USER CODE END PendSV_IRQn 1 */
}
 8000502:	bf00      	nop
 8000504:	46bd      	mov	sp, r7
 8000506:	bc80      	pop	{r7}
 8000508:	4770      	bx	lr

0800050a <SysTick_Handler>:

/**
  * @brief This function handles System tick timer.
  */
void SysTick_Handler(void)
{
 800050a:	b580      	push	{r7, lr}
 800050c:	af00      	add	r7, sp, #0
  /* USER CODE BEGIN SysTick_IRQn 0 */

  /* USER CODE END SysTick_IRQn 0 */
  HAL_IncTick();
 800050e:	f000 f87f 	bl	8000610 <HAL_IncTick>
  /* USER CODE BEGIN SysTick_IRQn 1 */

  /* USER CODE END SysTick_IRQn 1 */
}
 8000512:	bf00      	nop
 8000514:	bd80      	pop	{r7, pc}
	...

08000518 <USART1_IRQHandler>:

/**
  * @brief This function handles USART1 global interrupt.
  */
void USART1_IRQHandler(void)
{
 8000518:	b580      	push	{r7, lr}
 800051a:	af00      	add	r7, sp, #0
  /* USER CODE BEGIN USART1_IRQn 0 */

  /* USER CODE END USART1_IRQn 0 */
  HAL_UART_IRQHandler(&huart1);
 800051c:	4802      	ldr	r0, [pc, #8]	; (8000528 <USART1_IRQHandler+0x10>)
 800051e:	f001 f97f 	bl	8001820 <HAL_UART_IRQHandler>
  /* USER CODE BEGIN USART1_IRQn 1 */

  /* USER CODE END USART1_IRQn 1 */
}
 8000522:	bf00      	nop
 8000524:	bd80      	pop	{r7, pc}
 8000526:	bf00      	nop
 8000528:	2000002c 	.word	0x2000002c

0800052c <SystemInit>:
 800052c:	b480      	push	{r7}
 800052e:	af00      	add	r7, sp, #0
 8000530:	bf00      	nop
 8000532:	46bd      	mov	sp, r7
 8000534:	bc80      	pop	{r7}
 8000536:	4770      	bx	lr

08000538 <Reset_Handler>:
 8000538:	f7ff fff8 	bl	800052c <SystemInit>
 800053c:	480b      	ldr	r0, [pc, #44]	; (800056c <LoopFillZerobss+0xe>)
 800053e:	490c      	ldr	r1, [pc, #48]	; (8000570 <LoopFillZerobss+0x12>)
 8000540:	4a0c      	ldr	r2, [pc, #48]	; (8000574 <LoopFillZerobss+0x16>)
 8000542:	2300      	movs	r3, #0
 8000544:	e002      	b.n	800054c <LoopCopyDataInit>

08000546 <CopyDataInit>:
 8000546:	58d4      	ldr	r4, [r2, r3]
 8000548:	50c4      	str	r4, [r0, r3]
 800054a:	3304      	adds	r3, #4

0800054c <LoopCopyDataInit>:
 800054c:	18c4      	adds	r4, r0, r3
 800054e:	428c      	cmp	r4, r1
 8000550:	d3f9      	bcc.n	8000546 <CopyDataInit>
 8000552:	4a09      	ldr	r2, [pc, #36]	; (8000578 <LoopFillZerobss+0x1a>)
 8000554:	4c09      	ldr	r4, [pc, #36]	; (800057c <LoopFillZerobss+0x1e>)
 8000556:	2300      	movs	r3, #0
 8000558:	e001      	b.n	800055e <LoopFillZerobss>

0800055a <FillZerobss>:
 800055a:	6013      	str	r3, [r2, #0]
 800055c:	3204      	adds	r2, #4

0800055e <LoopFillZerobss>:
 800055e:	42a2      	cmp	r2, r4
 8000560:	d3fb      	bcc.n	800055a <FillZerobss>
 8000562:	f001 feb5 	bl	80022d0 <__libc_init_array>
 8000566:	f7ff fdf1 	bl	800014c <main>
 800056a:	4770      	bx	lr
 800056c:	20000000 	.word	0x20000000
 8000570:	20000010 	.word	0x20000010
 8000574:	08002364 	.word	0x08002364
 8000578:	20000010 	.word	0x20000010
 800057c:	2000007c 	.word	0x2000007c

08000580 <ADC1_2_IRQHandler>:
 8000580:	e7fe      	b.n	8000580 <ADC1_2_IRQHandler>
	...

08000584 <HAL_Init>:
 8000584:	b580      	push	{r7, lr}
 8000586:	af00      	add	r7, sp, #0
 8000588:	4b08      	ldr	r3, [pc, #32]	; (80005ac <HAL_Init+0x28>)
 800058a:	681b      	ldr	r3, [r3, #0]
 800058c:	4a07      	ldr	r2, [pc, #28]	; (80005ac <HAL_Init+0x28>)
 800058e:	f043 0310 	orr.w	r3, r3, #16
 8000592:	6013      	str	r3, [r2, #0]
 8000594:	2003      	movs	r0, #3
 8000596:	f000 f923 	bl	80007e0 <HAL_NVIC_SetPriorityGrouping>
 800059a:	200f      	movs	r0, #15
 800059c:	f000 f808 	bl	80005b0 <HAL_InitTick>
 80005a0:	f7ff ff0c 	bl	80003bc <HAL_MspInit>
 80005a4:	2300      	movs	r3, #0
 80005a6:	4618      	mov	r0, r3
 80005a8:	bd80      	pop	{r7, pc}
 80005aa:	bf00      	nop
 80005ac:	40022000 	.word	0x40022000

080005b0 <HAL_InitTick>:
 80005b0:	b580      	push	{r7, lr}
 80005b2:	b082      	sub	sp, #8
 80005b4:	af00      	add	r7, sp, #0
 80005b6:	6078      	str	r0, [r7, #4]
 80005b8:	4b12      	ldr	r3, [pc, #72]	; (8000604 <HAL_InitTick+0x54>)
 80005ba:	681a      	ldr	r2, [r3, #0]
 80005bc:	4b12      	ldr	r3, [pc, #72]	; (8000608 <HAL_InitTick+0x58>)
 80005be:	781b      	ldrb	r3, [r3, #0]
 80005c0:	4619      	mov	r1, r3
 80005c2:	f44f 737a 	mov.w	r3, #1000	; 0x3e8
 80005c6:	fbb3 f3f1 	udiv	r3, r3, r1
 80005ca:	fbb2 f3f3 	udiv	r3, r2, r3
 80005ce:	4618      	mov	r0, r3
 80005d0:	f000 f93b 	bl	800084a <HAL_SYSTICK_Config>
 80005d4:	4603      	mov	r3, r0
 80005d6:	2b00      	cmp	r3, #0
 80005d8:	d001      	beq.n	80005de <HAL_InitTick+0x2e>
 80005da:	2301      	movs	r3, #1
 80005dc:	e00e      	b.n	80005fc <HAL_InitTick+0x4c>
 80005de:	687b      	ldr	r3, [r7, #4]
 80005e0:	2b0f      	cmp	r3, #15
 80005e2:	d80a      	bhi.n	80005fa <HAL_InitTick+0x4a>
 80005e4:	2200      	movs	r2, #0
 80005e6:	6879      	ldr	r1, [r7, #4]
 80005e8:	f04f 30ff 	mov.w	r0, #4294967295
 80005ec:	f000 f903 	bl	80007f6 <HAL_NVIC_SetPriority>
 80005f0:	4a06      	ldr	r2, [pc, #24]	; (800060c <HAL_InitTick+0x5c>)
 80005f2:	687b      	ldr	r3, [r7, #4]
 80005f4:	6013      	str	r3, [r2, #0]
 80005f6:	2300      	movs	r3, #0
 80005f8:	e000      	b.n	80005fc <HAL_InitTick+0x4c>
 80005fa:	2301      	movs	r3, #1
 80005fc:	4618      	mov	r0, r3
 80005fe:	3708      	adds	r7, #8
 8000600:	46bd      	mov	sp, r7
 8000602:	bd80      	pop	{r7, pc}
 8000604:	20000004 	.word	0x20000004
 8000608:	2000000c 	.word	0x2000000c
 800060c:	20000008 	.word	0x20000008

08000610 <HAL_IncTick>:
 8000610:	b480      	push	{r7}
 8000612:	af00      	add	r7, sp, #0
 8000614:	4b05      	ldr	r3, [pc, #20]	; (800062c <HAL_IncTick+0x1c>)
 8000616:	781b      	ldrb	r3, [r3, #0]
 8000618:	461a      	mov	r2, r3
 800061a:	4b05      	ldr	r3, [pc, #20]	; (8000630 <HAL_IncTick+0x20>)
 800061c:	681b      	ldr	r3, [r3, #0]
 800061e:	4413      	add	r3, r2
 8000620:	4a03      	ldr	r2, [pc, #12]	; (8000630 <HAL_IncTick+0x20>)
 8000622:	6013      	str	r3, [r2, #0]
 8000624:	bf00      	nop
 8000626:	46bd      	mov	sp, r7
 8000628:	bc80      	pop	{r7}
 800062a:	4770      	bx	lr
 800062c:	2000000c 	.word	0x2000000c
 8000630:	20000078 	.word	0x20000078

08000634 <HAL_GetTick>:
 8000634:	b480      	push	{r7}
 8000636:	af00      	add	r7, sp, #0
 8000638:	4b02      	ldr	r3, [pc, #8]	; (8000644 <HAL_GetTick+0x10>)
 800063a:	681b      	ldr	r3, [r3, #0]
 800063c:	4618      	mov	r0, r3
 800063e:	46bd      	mov	sp, r7
 8000640:	bc80      	pop	{r7}
 8000642:	4770      	bx	lr
 8000644:	20000078 	.word	0x20000078

08000648 <__NVIC_SetPriorityGrouping>:
 8000648:	b480      	push	{r7}
 800064a:	b085      	sub	sp, #20
 800064c:	af00      	add	r7, sp, #0
 800064e:	6078      	str	r0, [r7, #4]
 8000650:	687b      	ldr	r3, [r7, #4]
 8000652:	f003 0307 	and.w	r3, r3, #7
 8000656:	60fb      	str	r3, [r7, #12]
 8000658:	4b0c      	ldr	r3, [pc, #48]	; (800068c <__NVIC_SetPriorityGrouping+0x44>)
 800065a:	68db      	ldr	r3, [r3, #12]
 800065c:	60bb      	str	r3, [r7, #8]
 800065e:	68ba      	ldr	r2, [r7, #8]
 8000660:	f64f 03ff 	movw	r3, #63743	; 0xf8ff
 8000664:	4013      	ands	r3, r2
 8000666:	60bb      	str	r3, [r7, #8]
 8000668:	68fb      	ldr	r3, [r7, #12]
 800066a:	021a      	lsls	r2, r3, #8
 800066c:	68bb      	ldr	r3, [r7, #8]
 800066e:	4313      	orrs	r3, r2
 8000670:	f043 63bf 	orr.w	r3, r3, #100139008	; 0x5f80000
 8000674:	f443 3300 	orr.w	r3, r3, #131072	; 0x20000
 8000678:	60bb      	str	r3, [r7, #8]
 800067a:	4a04      	ldr	r2, [pc, #16]	; (800068c <__NVIC_SetPriorityGrouping+0x44>)
 800067c:	68bb      	ldr	r3, [r7, #8]
 800067e:	60d3      	str	r3, [r2, #12]
 8000680:	bf00      	nop
 8000682:	3714      	adds	r7, #20
 8000684:	46bd      	mov	sp, r7
 8000686:	bc80      	pop	{r7}
 8000688:	4770      	bx	lr
 800068a:	bf00      	nop
 800068c:	e000ed00 	.word	0xe000ed00

08000690 <__NVIC_GetPriorityGrouping>:
 8000690:	b480      	push	{r7}
 8000692:	af00      	add	r7, sp, #0
 8000694:	4b04      	ldr	r3, [pc, #16]	; (80006a8 <__NVIC_GetPriorityGrouping+0x18>)
 8000696:	68db      	ldr	r3, [r3, #12]
 8000698:	0a1b      	lsrs	r3, r3, #8
 800069a:	f003 0307 	and.w	r3, r3, #7
 800069e:	4618      	mov	r0, r3
 80006a0:	46bd      	mov	sp, r7
 80006a2:	bc80      	pop	{r7}
 80006a4:	4770      	bx	lr
 80006a6:	bf00      	nop
 80006a8:	e000ed00 	.word	0xe000ed00

080006ac <__NVIC_EnableIRQ>:
 80006ac:	b480      	push	{r7}
 80006ae:	b083      	sub	sp, #12
 80006b0:	af00      	add	r7, sp, #0
 80006b2:	4603      	mov	r3, r0
 80006b4:	71fb      	strb	r3, [r7, #7]
 80006b6:	f997 3007 	ldrsb.w	r3, [r7, #7]
 80006ba:	2b00      	cmp	r3, #0
 80006bc:	db0b      	blt.n	80006d6 <__NVIC_EnableIRQ+0x2a>
 80006be:	79fb      	ldrb	r3, [r7, #7]
 80006c0:	f003 021f 	and.w	r2, r3, #31
 80006c4:	4906      	ldr	r1, [pc, #24]	; (80006e0 <__NVIC_EnableIRQ+0x34>)
 80006c6:	f997 3007 	ldrsb.w	r3, [r7, #7]
 80006ca:	095b      	lsrs	r3, r3, #5
 80006cc:	2001      	movs	r0, #1
 80006ce:	fa00 f202 	lsl.w	r2, r0, r2
 80006d2:	f841 2023 	str.w	r2, [r1, r3, lsl #2]
 80006d6:	bf00      	nop
 80006d8:	370c      	adds	r7, #12
 80006da:	46bd      	mov	sp, r7
 80006dc:	bc80      	pop	{r7}
 80006de:	4770      	bx	lr
 80006e0:	e000e100 	.word	0xe000e100

080006e4 <__NVIC_SetPriority>:
 80006e4:	b480      	push	{r7}
 80006e6:	b083      	sub	sp, #12
 80006e8:	af00      	add	r7, sp, #0
 80006ea:	4603      	mov	r3, r0
 80006ec:	6039      	str	r1, [r7, #0]
 80006ee:	71fb      	strb	r3, [r7, #7]
 80006f0:	f997 3007 	ldrsb.w	r3, [r7, #7]
 80006f4:	2b00      	cmp	r3, #0
 80006f6:	db0a      	blt.n	800070e <__NVIC_SetPriority+0x2a>
 80006f8:	683b      	ldr	r3, [r7, #0]
 80006fa:	b2da      	uxtb	r2, r3
 80006fc:	490c      	ldr	r1, [pc, #48]	; (8000730 <__NVIC_SetPriority+0x4c>)
 80006fe:	f997 3007 	ldrsb.w	r3, [r7, #7]
 8000702:	0112      	lsls	r2, r2, #4
 8000704:	b2d2      	uxtb	r2, r2
 8000706:	440b      	add	r3, r1
 8000708:	f883 2300 	strb.w	r2, [r3, #768]	; 0x300
 800070c:	e00a      	b.n	8000724 <__NVIC_SetPriority+0x40>
 800070e:	683b      	ldr	r3, [r7, #0]
 8000710:	b2da      	uxtb	r2, r3
 8000712:	4908      	ldr	r1, [pc, #32]	; (8000734 <__NVIC_SetPriority+0x50>)
 8000714:	79fb      	ldrb	r3, [r7, #7]
 8000716:	f003 030f 	and.w	r3, r3, #15
 800071a:	3b04      	subs	r3, #4
 800071c:	0112      	lsls	r2, r2, #4
 800071e:	b2d2      	uxtb	r2, r2
 8000720:	440b      	add	r3, r1
 8000722:	761a      	strb	r2, [r3, #24]
 8000724:	bf00      	nop
 8000726:	370c      	adds	r7, #12
 8000728:	46bd      	mov	sp, r7
 800072a:	bc80      	pop	{r7}
 800072c:	4770      	bx	lr
 800072e:	bf00      	nop
 8000730:	e000e100 	.word	0xe000e100
 8000734:	e000ed00 	.word	0xe000ed00

08000738 <NVIC_EncodePriority>:
 8000738:	b480      	push	{r7}
 800073a:	b089      	sub	sp, #36	; 0x24
 800073c:	af00      	add	r7, sp, #0
 800073e:	60f8      	str	r0, [r7, #12]
 8000740:	60b9      	str	r1, [r7, #8]
 8000742:	607a      	str	r2, [r7, #4]
 8000744:	68fb      	ldr	r3, [r7, #12]
 8000746:	f003 0307 	and.w	r3, r3, #7
 800074a:	61fb      	str	r3, [r7, #28]
 800074c:	69fb      	ldr	r3, [r7, #28]
 800074e:	f1c3 0307 	rsb	r3, r3, #7
 8000752:	2b04      	cmp	r3, #4
 8000754:	bf28      	it	cs
 8000756:	2304      	movcs	r3, #4
 8000758:	61bb      	str	r3, [r7, #24]
 800075a:	69fb      	ldr	r3, [r7, #28]
 800075c:	3304      	adds	r3, #4
 800075e:	2b06      	cmp	r3, #6
 8000760:	d902      	bls.n	8000768 <NVIC_EncodePriority+0x30>
 8000762:	69fb      	ldr	r3, [r7, #28]
 8000764:	3b03      	subs	r3, #3
 8000766:	e000      	b.n	800076a <NVIC_EncodePriority+0x32>
 8000768:	2300      	movs	r3, #0
 800076a:	617b      	str	r3, [r7, #20]
 800076c:	f04f 32ff 	mov.w	r2, #4294967295
 8000770:	69bb      	ldr	r3, [r7, #24]
 8000772:	fa02 f303 	lsl.w	r3, r2, r3
 8000776:	43da      	mvns	r2, r3
 8000778:	68bb      	ldr	r3, [r7, #8]
 800077a:	401a      	ands	r2, r3
 800077c:	697b      	ldr	r3, [r7, #20]
 800077e:	409a      	lsls	r2, r3
 8000780:	f04f 31ff 	mov.w	r1, #4294967295
 8000784:	697b      	ldr	r3, [r7, #20]
 8000786:	fa01 f303 	lsl.w	r3, r1, r3
 800078a:	43d9      	mvns	r1, r3
 800078c:	687b      	ldr	r3, [r7, #4]
 800078e:	400b      	ands	r3, r1
 8000790:	4313      	orrs	r3, r2
 8000792:	4618      	mov	r0, r3
 8000794:	3724      	adds	r7, #36	; 0x24
 8000796:	46bd      	mov	sp, r7
 8000798:	bc80      	pop	{r7}
 800079a:	4770      	bx	lr

0800079c <SysTick_Config>:
 800079c:	b580      	push	{r7, lr}
 800079e:	b082      	sub	sp, #8
 80007a0:	af00      	add	r7, sp, #0
 80007a2:	6078      	str	r0, [r7, #4]
 80007a4:	687b      	ldr	r3, [r7, #4]
 80007a6:	3b01      	subs	r3, #1
 80007a8:	f1b3 7f80 	cmp.w	r3, #16777216	; 0x1000000
 80007ac:	d301      	bcc.n	80007b2 <SysTick_Config+0x16>
 80007ae:	2301      	movs	r3, #1
 80007b0:	e00f      	b.n	80007d2 <SysTick_Config+0x36>
 80007b2:	4a0a      	ldr	r2, [pc, #40]	; (80007dc <SysTick_Config+0x40>)
 80007b4:	687b      	ldr	r3, [r7, #4]
 80007b6:	3b01      	subs	r3, #1
 80007b8:	6053      	str	r3, [r2, #4]
 80007ba:	210f      	movs	r1, #15
 80007bc:	f04f 30ff 	mov.w	r0, #4294967295
 80007c0:	f7ff ff90 	bl	80006e4 <__NVIC_SetPriority>
 80007c4:	4b05      	ldr	r3, [pc, #20]	; (80007dc <SysTick_Config+0x40>)
 80007c6:	2200      	movs	r2, #0
 80007c8:	609a      	str	r2, [r3, #8]
 80007ca:	4b04      	ldr	r3, [pc, #16]	; (80007dc <SysTick_Config+0x40>)
 80007cc:	2207      	movs	r2, #7
 80007ce:	601a      	str	r2, [r3, #0]
 80007d0:	2300      	movs	r3, #0
 80007d2:	4618      	mov	r0, r3
 80007d4:	3708      	adds	r7, #8
 80007d6:	46bd      	mov	sp, r7
 80007d8:	bd80      	pop	{r7, pc}
 80007da:	bf00      	nop
 80007dc:	e000e010 	.word	0xe000e010

080007e0 <HAL_NVIC_SetPriorityGrouping>:
 80007e0:	b580      	push	{r7, lr}
 80007e2:	b082      	sub	sp, #8
 80007e4:	af00      	add	r7, sp, #0
 80007e6:	6078      	str	r0, [r7, #4]
 80007e8:	6878      	ldr	r0, [r7, #4]
 80007ea:	f7ff ff2d 	bl	8000648 <__NVIC_SetPriorityGrouping>
 80007ee:	bf00      	nop
 80007f0:	3708      	adds	r7, #8
 80007f2:	46bd      	mov	sp, r7
 80007f4:	bd80      	pop	{r7, pc}

080007f6 <HAL_NVIC_SetPriority>:
 80007f6:	b580      	push	{r7, lr}
 80007f8:	b086      	sub	sp, #24
 80007fa:	af00      	add	r7, sp, #0
 80007fc:	4603      	mov	r3, r0
 80007fe:	60b9      	str	r1, [r7, #8]
 8000800:	607a      	str	r2, [r7, #4]
 8000802:	73fb      	strb	r3, [r7, #15]
 8000804:	2300      	movs	r3, #0
 8000806:	617b      	str	r3, [r7, #20]
 8000808:	f7ff ff42 	bl	8000690 <__NVIC_GetPriorityGrouping>
 800080c:	6178      	str	r0, [r7, #20]
 800080e:	687a      	ldr	r2, [r7, #4]
 8000810:	68b9      	ldr	r1, [r7, #8]
 8000812:	6978      	ldr	r0, [r7, #20]
 8000814:	f7ff ff90 	bl	8000738 <NVIC_EncodePriority>
 8000818:	4602      	mov	r2, r0
 800081a:	f997 300f 	ldrsb.w	r3, [r7, #15]
 800081e:	4611      	mov	r1, r2
 8000820:	4618      	mov	r0, r3
 8000822:	f7ff ff5f 	bl	80006e4 <__NVIC_SetPriority>
 8000826:	bf00      	nop
 8000828:	3718      	adds	r7, #24
 800082a:	46bd      	mov	sp, r7
 800082c:	bd80      	pop	{r7, pc}

0800082e <HAL_NVIC_EnableIRQ>:
 800082e:	b580      	push	{r7, lr}
 8000830:	b082      	sub	sp, #8
 8000832:	af00      	add	r7, sp, #0
 8000834:	4603      	mov	r3, r0
 8000836:	71fb      	strb	r3, [r7, #7]
 8000838:	f997 3007 	ldrsb.w	r3, [r7, #7]
 800083c:	4618      	mov	r0, r3
 800083e:	f7ff ff35 	bl	80006ac <__NVIC_EnableIRQ>
 8000842:	bf00      	nop
 8000844:	3708      	adds	r7, #8
 8000846:	46bd      	mov	sp, r7
 8000848:	bd80      	pop	{r7, pc}

0800084a <HAL_SYSTICK_Config>:
 800084a:	b580      	push	{r7, lr}
 800084c:	b082      	sub	sp, #8
 800084e:	af00      	add	r7, sp, #0
 8000850:	6078      	str	r0, [r7, #4]
 8000852:	6878      	ldr	r0, [r7, #4]
 8000854:	f7ff ffa2 	bl	800079c <SysTick_Config>
 8000858:	4603      	mov	r3, r0
 800085a:	4618      	mov	r0, r3
 800085c:	3708      	adds	r7, #8
 800085e:	46bd      	mov	sp, r7
 8000860:	bd80      	pop	{r7, pc}

08000862 <HAL_DMA_Abort>:
 8000862:	b480      	push	{r7}
 8000864:	b085      	sub	sp, #20
 8000866:	af00      	add	r7, sp, #0
 8000868:	6078      	str	r0, [r7, #4]
 800086a:	2300      	movs	r3, #0
 800086c:	73fb      	strb	r3, [r7, #15]
 800086e:	687b      	ldr	r3, [r7, #4]
 8000870:	f893 3021 	ldrb.w	r3, [r3, #33]	; 0x21
 8000874:	b2db      	uxtb	r3, r3
 8000876:	2b02      	cmp	r3, #2
 8000878:	d008      	beq.n	800088c <HAL_DMA_Abort+0x2a>
 800087a:	687b      	ldr	r3, [r7, #4]
 800087c:	2204      	movs	r2, #4
 800087e:	639a      	str	r2, [r3, #56]	; 0x38
 8000880:	687b      	ldr	r3, [r7, #4]
 8000882:	2200      	movs	r2, #0
 8000884:	f883 2020 	strb.w	r2, [r3, #32]
 8000888:	2301      	movs	r3, #1
 800088a:	e020      	b.n	80008ce <HAL_DMA_Abort+0x6c>
 800088c:	687b      	ldr	r3, [r7, #4]
 800088e:	681b      	ldr	r3, [r3, #0]
 8000890:	681a      	ldr	r2, [r3, #0]
 8000892:	687b      	ldr	r3, [r7, #4]
 8000894:	681b      	ldr	r3, [r3, #0]
 8000896:	f022 020e 	bic.w	r2, r2, #14
 800089a:	601a      	str	r2, [r3, #0]
 800089c:	687b      	ldr	r3, [r7, #4]
 800089e:	681b      	ldr	r3, [r3, #0]
 80008a0:	681a      	ldr	r2, [r3, #0]
 80008a2:	687b      	ldr	r3, [r7, #4]
 80008a4:	681b      	ldr	r3, [r3, #0]
 80008a6:	f022 0201 	bic.w	r2, r2, #1
 80008aa:	601a      	str	r2, [r3, #0]
 80008ac:	687b      	ldr	r3, [r7, #4]
 80008ae:	6c1a      	ldr	r2, [r3, #64]	; 0x40
 80008b0:	687b      	ldr	r3, [r7, #4]
 80008b2:	6bdb      	ldr	r3, [r3, #60]	; 0x3c
 80008b4:	2101      	movs	r1, #1
 80008b6:	fa01 f202 	lsl.w	r2, r1, r2
 80008ba:	605a      	str	r2, [r3, #4]
 80008bc:	687b      	ldr	r3, [r7, #4]
 80008be:	2201      	movs	r2, #1
 80008c0:	f883 2021 	strb.w	r2, [r3, #33]	; 0x21
 80008c4:	687b      	ldr	r3, [r7, #4]
 80008c6:	2200      	movs	r2, #0
 80008c8:	f883 2020 	strb.w	r2, [r3, #32]
 80008cc:	7bfb      	ldrb	r3, [r7, #15]
 80008ce:	4618      	mov	r0, r3
 80008d0:	3714      	adds	r7, #20
 80008d2:	46bd      	mov	sp, r7
 80008d4:	bc80      	pop	{r7}
 80008d6:	4770      	bx	lr

080008d8 <HAL_DMA_Abort_IT>:
 80008d8:	b580      	push	{r7, lr}
 80008da:	b084      	sub	sp, #16
 80008dc:	af00      	add	r7, sp, #0
 80008de:	6078      	str	r0, [r7, #4]
 80008e0:	2300      	movs	r3, #0
 80008e2:	73fb      	strb	r3, [r7, #15]
 80008e4:	687b      	ldr	r3, [r7, #4]
 80008e6:	f893 3021 	ldrb.w	r3, [r3, #33]	; 0x21
 80008ea:	b2db      	uxtb	r3, r3
 80008ec:	2b02      	cmp	r3, #2
 80008ee:	d005      	beq.n	80008fc <HAL_DMA_Abort_IT+0x24>
 80008f0:	687b      	ldr	r3, [r7, #4]
 80008f2:	2204      	movs	r2, #4
 80008f4:	639a      	str	r2, [r3, #56]	; 0x38
 80008f6:	2301      	movs	r3, #1
 80008f8:	73fb      	strb	r3, [r7, #15]
 80008fa:	e051      	b.n	80009a0 <HAL_DMA_Abort_IT+0xc8>
 80008fc:	687b      	ldr	r3, [r7, #4]
 80008fe:	681b      	ldr	r3, [r3, #0]
 8000900:	681a      	ldr	r2, [r3, #0]
 8000902:	687b      	ldr	r3, [r7, #4]
 8000904:	681b      	ldr	r3, [r3, #0]
 8000906:	f022 020e 	bic.w	r2, r2, #14
 800090a:	601a      	str	r2, [r3, #0]
 800090c:	687b      	ldr	r3, [r7, #4]
 800090e:	681b      	ldr	r3, [r3, #0]
 8000910:	681a      	ldr	r2, [r3, #0]
 8000912:	687b      	ldr	r3, [r7, #4]
 8000914:	681b      	ldr	r3, [r3, #0]
 8000916:	f022 0201 	bic.w	r2, r2, #1
 800091a:	601a      	str	r2, [r3, #0]
 800091c:	687b      	ldr	r3, [r7, #4]
 800091e:	681b      	ldr	r3, [r3, #0]
 8000920:	4a22      	ldr	r2, [pc, #136]	; (80009ac <HAL_DMA_Abort_IT+0xd4>)
 8000922:	4293      	cmp	r3, r2
 8000924:	d029      	beq.n	800097a <HAL_DMA_Abort_IT+0xa2>
 8000926:	687b      	ldr	r3, [r7, #4]
 8000928:	681b      	ldr	r3, [r3, #0]
 800092a:	4a21      	ldr	r2, [pc, #132]	; (80009b0 <HAL_DMA_Abort_IT+0xd8>)
 800092c:	4293      	cmp	r3, r2
 800092e:	d022      	beq.n	8000976 <HAL_DMA_Abort_IT+0x9e>
 8000930:	687b      	ldr	r3, [r7, #4]
 8000932:	681b      	ldr	r3, [r3, #0]
 8000934:	4a1f      	ldr	r2, [pc, #124]	; (80009b4 <HAL_DMA_Abort_IT+0xdc>)
 8000936:	4293      	cmp	r3, r2
 8000938:	d01a      	beq.n	8000970 <HAL_DMA_Abort_IT+0x98>
 800093a:	687b      	ldr	r3, [r7, #4]
 800093c:	681b      	ldr	r3, [r3, #0]
 800093e:	4a1e      	ldr	r2, [pc, #120]	; (80009b8 <HAL_DMA_Abort_IT+0xe0>)
 8000940:	4293      	cmp	r3, r2
 8000942:	d012      	beq.n	800096a <HAL_DMA_Abort_IT+0x92>
 8000944:	687b      	ldr	r3, [r7, #4]
 8000946:	681b      	ldr	r3, [r3, #0]
 8000948:	4a1c      	ldr	r2, [pc, #112]	; (80009bc <HAL_DMA_Abort_IT+0xe4>)
 800094a:	4293      	cmp	r3, r2
 800094c:	d00a      	beq.n	8000964 <HAL_DMA_Abort_IT+0x8c>
 800094e:	687b      	ldr	r3, [r7, #4]
 8000950:	681b      	ldr	r3, [r3, #0]
 8000952:	4a1b      	ldr	r2, [pc, #108]	; (80009c0 <HAL_DMA_Abort_IT+0xe8>)
 8000954:	4293      	cmp	r3, r2
 8000956:	d102      	bne.n	800095e <HAL_DMA_Abort_IT+0x86>
 8000958:	f44f 1380 	mov.w	r3, #1048576	; 0x100000
 800095c:	e00e      	b.n	800097c <HAL_DMA_Abort_IT+0xa4>
 800095e:	f04f 7380 	mov.w	r3, #16777216	; 0x1000000
 8000962:	e00b      	b.n	800097c <HAL_DMA_Abort_IT+0xa4>
 8000964:	f44f 3380 	mov.w	r3, #65536	; 0x10000
 8000968:	e008      	b.n	800097c <HAL_DMA_Abort_IT+0xa4>
 800096a:	f44f 5380 	mov.w	r3, #4096	; 0x1000
 800096e:	e005      	b.n	800097c <HAL_DMA_Abort_IT+0xa4>
 8000970:	f44f 7380 	mov.w	r3, #256	; 0x100
 8000974:	e002      	b.n	800097c <HAL_DMA_Abort_IT+0xa4>
 8000976:	2310      	movs	r3, #16
 8000978:	e000      	b.n	800097c <HAL_DMA_Abort_IT+0xa4>
 800097a:	2301      	movs	r3, #1
 800097c:	4a11      	ldr	r2, [pc, #68]	; (80009c4 <HAL_DMA_Abort_IT+0xec>)
 800097e:	6053      	str	r3, [r2, #4]
 8000980:	687b      	ldr	r3, [r7, #4]
 8000982:	2201      	movs	r2, #1
 8000984:	f883 2021 	strb.w	r2, [r3, #33]	; 0x21
 8000988:	687b      	ldr	r3, [r7, #4]
 800098a:	2200      	movs	r2, #0
 800098c:	f883 2020 	strb.w	r2, [r3, #32]
 8000990:	687b      	ldr	r3, [r7, #4]
 8000992:	6b5b      	ldr	r3, [r3, #52]	; 0x34
 8000994:	2b00      	cmp	r3, #0
 8000996:	d003      	beq.n	80009a0 <HAL_DMA_Abort_IT+0xc8>
 8000998:	687b      	ldr	r3, [r7, #4]
 800099a:	6b5b      	ldr	r3, [r3, #52]	; 0x34
 800099c:	6878      	ldr	r0, [r7, #4]
 800099e:	4798      	blx	r3
 80009a0:	7bfb      	ldrb	r3, [r7, #15]
 80009a2:	4618      	mov	r0, r3
 80009a4:	3710      	adds	r7, #16
 80009a6:	46bd      	mov	sp, r7
 80009a8:	bd80      	pop	{r7, pc}
 80009aa:	bf00      	nop
 80009ac:	40020008 	.word	0x40020008
 80009b0:	4002001c 	.word	0x4002001c
 80009b4:	40020030 	.word	0x40020030
 80009b8:	40020044 	.word	0x40020044
 80009bc:	40020058 	.word	0x40020058
 80009c0:	4002006c 	.word	0x4002006c
 80009c4:	40020000 	.word	0x40020000

080009c8 <HAL_GPIO_Init>:
 80009c8:	b480      	push	{r7}
 80009ca:	b08b      	sub	sp, #44	; 0x2c
 80009cc:	af00      	add	r7, sp, #0
 80009ce:	6078      	str	r0, [r7, #4]
 80009d0:	6039      	str	r1, [r7, #0]
 80009d2:	2300      	movs	r3, #0
 80009d4:	627b      	str	r3, [r7, #36]	; 0x24
 80009d6:	2300      	movs	r3, #0
 80009d8:	623b      	str	r3, [r7, #32]
 80009da:	e169      	b.n	8000cb0 <HAL_GPIO_Init+0x2e8>
 80009dc:	2201      	movs	r2, #1
 80009de:	6a7b      	ldr	r3, [r7, #36]	; 0x24
 80009e0:	fa02 f303 	lsl.w	r3, r2, r3
 80009e4:	61fb      	str	r3, [r7, #28]
 80009e6:	683b      	ldr	r3, [r7, #0]
 80009e8:	681b      	ldr	r3, [r3, #0]
 80009ea:	69fa      	ldr	r2, [r7, #28]
 80009ec:	4013      	ands	r3, r2
 80009ee:	61bb      	str	r3, [r7, #24]
 80009f0:	69ba      	ldr	r2, [r7, #24]
 80009f2:	69fb      	ldr	r3, [r7, #28]
 80009f4:	429a      	cmp	r2, r3
 80009f6:	f040 8158 	bne.w	8000caa <HAL_GPIO_Init+0x2e2>
 80009fa:	683b      	ldr	r3, [r7, #0]
 80009fc:	685b      	ldr	r3, [r3, #4]
 80009fe:	4a9a      	ldr	r2, [pc, #616]	; (8000c68 <HAL_GPIO_Init+0x2a0>)
 8000a00:	4293      	cmp	r3, r2
 8000a02:	d05e      	beq.n	8000ac2 <HAL_GPIO_Init+0xfa>
 8000a04:	4a98      	ldr	r2, [pc, #608]	; (8000c68 <HAL_GPIO_Init+0x2a0>)
 8000a06:	4293      	cmp	r3, r2
 8000a08:	d875      	bhi.n	8000af6 <HAL_GPIO_Init+0x12e>
 8000a0a:	4a98      	ldr	r2, [pc, #608]	; (8000c6c <HAL_GPIO_Init+0x2a4>)
 8000a0c:	4293      	cmp	r3, r2
 8000a0e:	d058      	beq.n	8000ac2 <HAL_GPIO_Init+0xfa>
 8000a10:	4a96      	ldr	r2, [pc, #600]	; (8000c6c <HAL_GPIO_Init+0x2a4>)
 8000a12:	4293      	cmp	r3, r2
 8000a14:	d86f      	bhi.n	8000af6 <HAL_GPIO_Init+0x12e>
 8000a16:	4a96      	ldr	r2, [pc, #600]	; (8000c70 <HAL_GPIO_Init+0x2a8>)
 8000a18:	4293      	cmp	r3, r2
 8000a1a:	d052      	beq.n	8000ac2 <HAL_GPIO_Init+0xfa>
 8000a1c:	4a94      	ldr	r2, [pc, #592]	; (8000c70 <HAL_GPIO_Init+0x2a8>)
 8000a1e:	4293      	cmp	r3, r2
 8000a20:	d869      	bhi.n	8000af6 <HAL_GPIO_Init+0x12e>
 8000a22:	4a94      	ldr	r2, [pc, #592]	; (8000c74 <HAL_GPIO_Init+0x2ac>)
 8000a24:	4293      	cmp	r3, r2
 8000a26:	d04c      	beq.n	8000ac2 <HAL_GPIO_Init+0xfa>
 8000a28:	4a92      	ldr	r2, [pc, #584]	; (8000c74 <HAL_GPIO_Init+0x2ac>)
 8000a2a:	4293      	cmp	r3, r2
 8000a2c:	d863      	bhi.n	8000af6 <HAL_GPIO_Init+0x12e>
 8000a2e:	4a92      	ldr	r2, [pc, #584]	; (8000c78 <HAL_GPIO_Init+0x2b0>)
 8000a30:	4293      	cmp	r3, r2
 8000a32:	d046      	beq.n	8000ac2 <HAL_GPIO_Init+0xfa>
 8000a34:	4a90      	ldr	r2, [pc, #576]	; (8000c78 <HAL_GPIO_Init+0x2b0>)
 8000a36:	4293      	cmp	r3, r2
 8000a38:	d85d      	bhi.n	8000af6 <HAL_GPIO_Init+0x12e>
 8000a3a:	2b12      	cmp	r3, #18
 8000a3c:	d82a      	bhi.n	8000a94 <HAL_GPIO_Init+0xcc>
 8000a3e:	2b12      	cmp	r3, #18
 8000a40:	d859      	bhi.n	8000af6 <HAL_GPIO_Init+0x12e>
 8000a42:	a201      	add	r2, pc, #4	; (adr r2, 8000a48 <HAL_GPIO_Init+0x80>)
 8000a44:	f852 f023 	ldr.w	pc, [r2, r3, lsl #2]
 8000a48:	08000ac3 	.word	0x08000ac3
 8000a4c:	08000a9d 	.word	0x08000a9d
 8000a50:	08000aaf 	.word	0x08000aaf
 8000a54:	08000af1 	.word	0x08000af1
 8000a58:	08000af7 	.word	0x08000af7
 8000a5c:	08000af7 	.word	0x08000af7
 8000a60:	08000af7 	.word	0x08000af7
 8000a64:	08000af7 	.word	0x08000af7
 8000a68:	08000af7 	.word	0x08000af7
 8000a6c:	08000af7 	.word	0x08000af7
 8000a70:	08000af7 	.word	0x08000af7
 8000a74:	08000af7 	.word	0x08000af7
 8000a78:	08000af7 	.word	0x08000af7
 8000a7c:	08000af7 	.word	0x08000af7
 8000a80:	08000af7 	.word	0x08000af7
 8000a84:	08000af7 	.word	0x08000af7
 8000a88:	08000af7 	.word	0x08000af7
 8000a8c:	08000aa5 	.word	0x08000aa5
 8000a90:	08000ab9 	.word	0x08000ab9
 8000a94:	4a79      	ldr	r2, [pc, #484]	; (8000c7c <HAL_GPIO_Init+0x2b4>)
 8000a96:	4293      	cmp	r3, r2
 8000a98:	d013      	beq.n	8000ac2 <HAL_GPIO_Init+0xfa>
 8000a9a:	e02c      	b.n	8000af6 <HAL_GPIO_Init+0x12e>
 8000a9c:	683b      	ldr	r3, [r7, #0]
 8000a9e:	68db      	ldr	r3, [r3, #12]
 8000aa0:	623b      	str	r3, [r7, #32]
 8000aa2:	e029      	b.n	8000af8 <HAL_GPIO_Init+0x130>
 8000aa4:	683b      	ldr	r3, [r7, #0]
 8000aa6:	68db      	ldr	r3, [r3, #12]
 8000aa8:	3304      	adds	r3, #4
 8000aaa:	623b      	str	r3, [r7, #32]
 8000aac:	e024      	b.n	8000af8 <HAL_GPIO_Init+0x130>
 8000aae:	683b      	ldr	r3, [r7, #0]
 8000ab0:	68db      	ldr	r3, [r3, #12]
 8000ab2:	3308      	adds	r3, #8
 8000ab4:	623b      	str	r3, [r7, #32]
 8000ab6:	e01f      	b.n	8000af8 <HAL_GPIO_Init+0x130>
 8000ab8:	683b      	ldr	r3, [r7, #0]
 8000aba:	68db      	ldr	r3, [r3, #12]
 8000abc:	330c      	adds	r3, #12
 8000abe:	623b      	str	r3, [r7, #32]
 8000ac0:	e01a      	b.n	8000af8 <HAL_GPIO_Init+0x130>
 8000ac2:	683b      	ldr	r3, [r7, #0]
 8000ac4:	689b      	ldr	r3, [r3, #8]
 8000ac6:	2b00      	cmp	r3, #0
 8000ac8:	d102      	bne.n	8000ad0 <HAL_GPIO_Init+0x108>
 8000aca:	2304      	movs	r3, #4
 8000acc:	623b      	str	r3, [r7, #32]
 8000ace:	e013      	b.n	8000af8 <HAL_GPIO_Init+0x130>
 8000ad0:	683b      	ldr	r3, [r7, #0]
 8000ad2:	689b      	ldr	r3, [r3, #8]
 8000ad4:	2b01      	cmp	r3, #1
 8000ad6:	d105      	bne.n	8000ae4 <HAL_GPIO_Init+0x11c>
 8000ad8:	2308      	movs	r3, #8
 8000ada:	623b      	str	r3, [r7, #32]
 8000adc:	687b      	ldr	r3, [r7, #4]
 8000ade:	69fa      	ldr	r2, [r7, #28]
 8000ae0:	611a      	str	r2, [r3, #16]
 8000ae2:	e009      	b.n	8000af8 <HAL_GPIO_Init+0x130>
 8000ae4:	2308      	movs	r3, #8
 8000ae6:	623b      	str	r3, [r7, #32]
 8000ae8:	687b      	ldr	r3, [r7, #4]
 8000aea:	69fa      	ldr	r2, [r7, #28]
 8000aec:	615a      	str	r2, [r3, #20]
 8000aee:	e003      	b.n	8000af8 <HAL_GPIO_Init+0x130>
 8000af0:	2300      	movs	r3, #0
 8000af2:	623b      	str	r3, [r7, #32]
 8000af4:	e000      	b.n	8000af8 <HAL_GPIO_Init+0x130>
 8000af6:	bf00      	nop
 8000af8:	69bb      	ldr	r3, [r7, #24]
 8000afa:	2bff      	cmp	r3, #255	; 0xff
 8000afc:	d801      	bhi.n	8000b02 <HAL_GPIO_Init+0x13a>
 8000afe:	687b      	ldr	r3, [r7, #4]
 8000b00:	e001      	b.n	8000b06 <HAL_GPIO_Init+0x13e>
 8000b02:	687b      	ldr	r3, [r7, #4]
 8000b04:	3304      	adds	r3, #4
 8000b06:	617b      	str	r3, [r7, #20]
 8000b08:	69bb      	ldr	r3, [r7, #24]
 8000b0a:	2bff      	cmp	r3, #255	; 0xff
 8000b0c:	d802      	bhi.n	8000b14 <HAL_GPIO_Init+0x14c>
 8000b0e:	6a7b      	ldr	r3, [r7, #36]	; 0x24
 8000b10:	009b      	lsls	r3, r3, #2
 8000b12:	e002      	b.n	8000b1a <HAL_GPIO_Init+0x152>
 8000b14:	6a7b      	ldr	r3, [r7, #36]	; 0x24
 8000b16:	3b08      	subs	r3, #8
 8000b18:	009b      	lsls	r3, r3, #2
 8000b1a:	613b      	str	r3, [r7, #16]
 8000b1c:	697b      	ldr	r3, [r7, #20]
 8000b1e:	681a      	ldr	r2, [r3, #0]
 8000b20:	210f      	movs	r1, #15
 8000b22:	693b      	ldr	r3, [r7, #16]
 8000b24:	fa01 f303 	lsl.w	r3, r1, r3
 8000b28:	43db      	mvns	r3, r3
 8000b2a:	401a      	ands	r2, r3
 8000b2c:	6a39      	ldr	r1, [r7, #32]
 8000b2e:	693b      	ldr	r3, [r7, #16]
 8000b30:	fa01 f303 	lsl.w	r3, r1, r3
 8000b34:	431a      	orrs	r2, r3
 8000b36:	697b      	ldr	r3, [r7, #20]
 8000b38:	601a      	str	r2, [r3, #0]
 8000b3a:	683b      	ldr	r3, [r7, #0]
 8000b3c:	685b      	ldr	r3, [r3, #4]
 8000b3e:	f003 5380 	and.w	r3, r3, #268435456	; 0x10000000
 8000b42:	2b00      	cmp	r3, #0
 8000b44:	f000 80b1 	beq.w	8000caa <HAL_GPIO_Init+0x2e2>
 8000b48:	4b4d      	ldr	r3, [pc, #308]	; (8000c80 <HAL_GPIO_Init+0x2b8>)
 8000b4a:	699b      	ldr	r3, [r3, #24]
 8000b4c:	4a4c      	ldr	r2, [pc, #304]	; (8000c80 <HAL_GPIO_Init+0x2b8>)
 8000b4e:	f043 0301 	orr.w	r3, r3, #1
 8000b52:	6193      	str	r3, [r2, #24]
 8000b54:	4b4a      	ldr	r3, [pc, #296]	; (8000c80 <HAL_GPIO_Init+0x2b8>)
 8000b56:	699b      	ldr	r3, [r3, #24]
 8000b58:	f003 0301 	and.w	r3, r3, #1
 8000b5c:	60bb      	str	r3, [r7, #8]
 8000b5e:	68bb      	ldr	r3, [r7, #8]
 8000b60:	4a48      	ldr	r2, [pc, #288]	; (8000c84 <HAL_GPIO_Init+0x2bc>)
 8000b62:	6a7b      	ldr	r3, [r7, #36]	; 0x24
 8000b64:	089b      	lsrs	r3, r3, #2
 8000b66:	3302      	adds	r3, #2
 8000b68:	f852 3023 	ldr.w	r3, [r2, r3, lsl #2]
 8000b6c:	60fb      	str	r3, [r7, #12]
 8000b6e:	6a7b      	ldr	r3, [r7, #36]	; 0x24
 8000b70:	f003 0303 	and.w	r3, r3, #3
 8000b74:	009b      	lsls	r3, r3, #2
 8000b76:	220f      	movs	r2, #15
 8000b78:	fa02 f303 	lsl.w	r3, r2, r3
 8000b7c:	43db      	mvns	r3, r3
 8000b7e:	68fa      	ldr	r2, [r7, #12]
 8000b80:	4013      	ands	r3, r2
 8000b82:	60fb      	str	r3, [r7, #12]
 8000b84:	687b      	ldr	r3, [r7, #4]
 8000b86:	4a40      	ldr	r2, [pc, #256]	; (8000c88 <HAL_GPIO_Init+0x2c0>)
 8000b88:	4293      	cmp	r3, r2
 8000b8a:	d013      	beq.n	8000bb4 <HAL_GPIO_Init+0x1ec>
 8000b8c:	687b      	ldr	r3, [r7, #4]
 8000b8e:	4a3f      	ldr	r2, [pc, #252]	; (8000c8c <HAL_GPIO_Init+0x2c4>)
 8000b90:	4293      	cmp	r3, r2
 8000b92:	d00d      	beq.n	8000bb0 <HAL_GPIO_Init+0x1e8>
 8000b94:	687b      	ldr	r3, [r7, #4]
 8000b96:	4a3e      	ldr	r2, [pc, #248]	; (8000c90 <HAL_GPIO_Init+0x2c8>)
 8000b98:	4293      	cmp	r3, r2
 8000b9a:	d007      	beq.n	8000bac <HAL_GPIO_Init+0x1e4>
 8000b9c:	687b      	ldr	r3, [r7, #4]
 8000b9e:	4a3d      	ldr	r2, [pc, #244]	; (8000c94 <HAL_GPIO_Init+0x2cc>)
 8000ba0:	4293      	cmp	r3, r2
 8000ba2:	d101      	bne.n	8000ba8 <HAL_GPIO_Init+0x1e0>
 8000ba4:	2303      	movs	r3, #3
 8000ba6:	e006      	b.n	8000bb6 <HAL_GPIO_Init+0x1ee>
 8000ba8:	2304      	movs	r3, #4
 8000baa:	e004      	b.n	8000bb6 <HAL_GPIO_Init+0x1ee>
 8000bac:	2302      	movs	r3, #2
 8000bae:	e002      	b.n	8000bb6 <HAL_GPIO_Init+0x1ee>
 8000bb0:	2301      	movs	r3, #1
 8000bb2:	e000      	b.n	8000bb6 <HAL_GPIO_Init+0x1ee>
 8000bb4:	2300      	movs	r3, #0
 8000bb6:	6a7a      	ldr	r2, [r7, #36]	; 0x24
 8000bb8:	f002 0203 	and.w	r2, r2, #3
 8000bbc:	0092      	lsls	r2, r2, #2
 8000bbe:	4093      	lsls	r3, r2
 8000bc0:	68fa      	ldr	r2, [r7, #12]
 8000bc2:	4313      	orrs	r3, r2
 8000bc4:	60fb      	str	r3, [r7, #12]
 8000bc6:	492f      	ldr	r1, [pc, #188]	; (8000c84 <HAL_GPIO_Init+0x2bc>)
 8000bc8:	6a7b      	ldr	r3, [r7, #36]	; 0x24
 8000bca:	089b      	lsrs	r3, r3, #2
 8000bcc:	3302      	adds	r3, #2
 8000bce:	68fa      	ldr	r2, [r7, #12]
 8000bd0:	f841 2023 	str.w	r2, [r1, r3, lsl #2]
 8000bd4:	683b      	ldr	r3, [r7, #0]
 8000bd6:	685b      	ldr	r3, [r3, #4]
 8000bd8:	f403 1380 	and.w	r3, r3, #1048576	; 0x100000
 8000bdc:	2b00      	cmp	r3, #0
 8000bde:	d006      	beq.n	8000bee <HAL_GPIO_Init+0x226>
 8000be0:	4b2d      	ldr	r3, [pc, #180]	; (8000c98 <HAL_GPIO_Init+0x2d0>)
 8000be2:	689a      	ldr	r2, [r3, #8]
 8000be4:	492c      	ldr	r1, [pc, #176]	; (8000c98 <HAL_GPIO_Init+0x2d0>)
 8000be6:	69bb      	ldr	r3, [r7, #24]
 8000be8:	4313      	orrs	r3, r2
 8000bea:	608b      	str	r3, [r1, #8]
 8000bec:	e006      	b.n	8000bfc <HAL_GPIO_Init+0x234>
 8000bee:	4b2a      	ldr	r3, [pc, #168]	; (8000c98 <HAL_GPIO_Init+0x2d0>)
 8000bf0:	689a      	ldr	r2, [r3, #8]
 8000bf2:	69bb      	ldr	r3, [r7, #24]
 8000bf4:	43db      	mvns	r3, r3
 8000bf6:	4928      	ldr	r1, [pc, #160]	; (8000c98 <HAL_GPIO_Init+0x2d0>)
 8000bf8:	4013      	ands	r3, r2
 8000bfa:	608b      	str	r3, [r1, #8]
 8000bfc:	683b      	ldr	r3, [r7, #0]
 8000bfe:	685b      	ldr	r3, [r3, #4]
 8000c00:	f403 1300 	and.w	r3, r3, #2097152	; 0x200000
 8000c04:	2b00      	cmp	r3, #0
 8000c06:	d006      	beq.n	8000c16 <HAL_GPIO_Init+0x24e>
 8000c08:	4b23      	ldr	r3, [pc, #140]	; (8000c98 <HAL_GPIO_Init+0x2d0>)
 8000c0a:	68da      	ldr	r2, [r3, #12]
 8000c0c:	4922      	ldr	r1, [pc, #136]	; (8000c98 <HAL_GPIO_Init+0x2d0>)
 8000c0e:	69bb      	ldr	r3, [r7, #24]
 8000c10:	4313      	orrs	r3, r2
 8000c12:	60cb      	str	r3, [r1, #12]
 8000c14:	e006      	b.n	8000c24 <HAL_GPIO_Init+0x25c>
 8000c16:	4b20      	ldr	r3, [pc, #128]	; (8000c98 <HAL_GPIO_Init+0x2d0>)
 8000c18:	68da      	ldr	r2, [r3, #12]
 8000c1a:	69bb      	ldr	r3, [r7, #24]
 8000c1c:	43db      	mvns	r3, r3
 8000c1e:	491e      	ldr	r1, [pc, #120]	; (8000c98 <HAL_GPIO_Init+0x2d0>)
 8000c20:	4013      	ands	r3, r2
 8000c22:	60cb      	str	r3, [r1, #12]
 8000c24:	683b      	ldr	r3, [r7, #0]
 8000c26:	685b      	ldr	r3, [r3, #4]
 8000c28:	f403 3300 	and.w	r3, r3, #131072	; 0x20000
 8000c2c:	2b00      	cmp	r3, #0
 8000c2e:	d006      	beq.n	8000c3e <HAL_GPIO_Init+0x276>
 8000c30:	4b19      	ldr	r3, [pc, #100]	; (8000c98 <HAL_GPIO_Init+0x2d0>)
 8000c32:	685a      	ldr	r2, [r3, #4]
 8000c34:	4918      	ldr	r1, [pc, #96]	; (8000c98 <HAL_GPIO_Init+0x2d0>)
 8000c36:	69bb      	ldr	r3, [r7, #24]
 8000c38:	4313      	orrs	r3, r2
 8000c3a:	604b      	str	r3, [r1, #4]
 8000c3c:	e006      	b.n	8000c4c <HAL_GPIO_Init+0x284>
 8000c3e:	4b16      	ldr	r3, [pc, #88]	; (8000c98 <HAL_GPIO_Init+0x2d0>)
 8000c40:	685a      	ldr	r2, [r3, #4]
 8000c42:	69bb      	ldr	r3, [r7, #24]
 8000c44:	43db      	mvns	r3, r3
 8000c46:	4914      	ldr	r1, [pc, #80]	; (8000c98 <HAL_GPIO_Init+0x2d0>)
 8000c48:	4013      	ands	r3, r2
 8000c4a:	604b      	str	r3, [r1, #4]
 8000c4c:	683b      	ldr	r3, [r7, #0]
 8000c4e:	685b      	ldr	r3, [r3, #4]
 8000c50:	f403 3380 	and.w	r3, r3, #65536	; 0x10000
 8000c54:	2b00      	cmp	r3, #0
 8000c56:	d021      	beq.n	8000c9c <HAL_GPIO_Init+0x2d4>
 8000c58:	4b0f      	ldr	r3, [pc, #60]	; (8000c98 <HAL_GPIO_Init+0x2d0>)
 8000c5a:	681a      	ldr	r2, [r3, #0]
 8000c5c:	490e      	ldr	r1, [pc, #56]	; (8000c98 <HAL_GPIO_Init+0x2d0>)
 8000c5e:	69bb      	ldr	r3, [r7, #24]
 8000c60:	4313      	orrs	r3, r2
 8000c62:	600b      	str	r3, [r1, #0]
 8000c64:	e021      	b.n	8000caa <HAL_GPIO_Init+0x2e2>
 8000c66:	bf00      	nop
 8000c68:	10320000 	.word	0x10320000
 8000c6c:	10310000 	.word	0x10310000
 8000c70:	10220000 	.word	0x10220000
 8000c74:	10210000 	.word	0x10210000
 8000c78:	10120000 	.word	0x10120000
 8000c7c:	10110000 	.word	0x10110000
 8000c80:	40021000 	.word	0x40021000
 8000c84:	40010000 	.word	0x40010000
 8000c88:	40010800 	.word	0x40010800
 8000c8c:	40010c00 	.word	0x40010c00
 8000c90:	40011000 	.word	0x40011000
 8000c94:	40011400 	.word	0x40011400
 8000c98:	40010400 	.word	0x40010400
 8000c9c:	4b0b      	ldr	r3, [pc, #44]	; (8000ccc <HAL_GPIO_Init+0x304>)
 8000c9e:	681a      	ldr	r2, [r3, #0]
 8000ca0:	69bb      	ldr	r3, [r7, #24]
 8000ca2:	43db      	mvns	r3, r3
 8000ca4:	4909      	ldr	r1, [pc, #36]	; (8000ccc <HAL_GPIO_Init+0x304>)
 8000ca6:	4013      	ands	r3, r2
 8000ca8:	600b      	str	r3, [r1, #0]
 8000caa:	6a7b      	ldr	r3, [r7, #36]	; 0x24
 8000cac:	3301      	adds	r3, #1
 8000cae:	627b      	str	r3, [r7, #36]	; 0x24
 8000cb0:	683b      	ldr	r3, [r7, #0]
 8000cb2:	681a      	ldr	r2, [r3, #0]
 8000cb4:	6a7b      	ldr	r3, [r7, #36]	; 0x24
 8000cb6:	fa22 f303 	lsr.w	r3, r2, r3
 8000cba:	2b00      	cmp	r3, #0
 8000cbc:	f47f ae8e 	bne.w	80009dc <HAL_GPIO_Init+0x14>
 8000cc0:	bf00      	nop
 8000cc2:	bf00      	nop
 8000cc4:	372c      	adds	r7, #44	; 0x2c
 8000cc6:	46bd      	mov	sp, r7
 8000cc8:	bc80      	pop	{r7}
 8000cca:	4770      	bx	lr
 8000ccc:	40010400 	.word	0x40010400

08000cd0 <HAL_GPIO_WritePin>:
 8000cd0:	b480      	push	{r7}
 8000cd2:	b083      	sub	sp, #12
 8000cd4:	af00      	add	r7, sp, #0
 8000cd6:	6078      	str	r0, [r7, #4]
 8000cd8:	460b      	mov	r3, r1
 8000cda:	807b      	strh	r3, [r7, #2]
 8000cdc:	4613      	mov	r3, r2
 8000cde:	707b      	strb	r3, [r7, #1]
 8000ce0:	787b      	ldrb	r3, [r7, #1]
 8000ce2:	2b00      	cmp	r3, #0
 8000ce4:	d003      	beq.n	8000cee <HAL_GPIO_WritePin+0x1e>
 8000ce6:	887a      	ldrh	r2, [r7, #2]
 8000ce8:	687b      	ldr	r3, [r7, #4]
 8000cea:	611a      	str	r2, [r3, #16]
 8000cec:	e003      	b.n	8000cf6 <HAL_GPIO_WritePin+0x26>
 8000cee:	887b      	ldrh	r3, [r7, #2]
 8000cf0:	041a      	lsls	r2, r3, #16
 8000cf2:	687b      	ldr	r3, [r7, #4]
 8000cf4:	611a      	str	r2, [r3, #16]
 8000cf6:	bf00      	nop
 8000cf8:	370c      	adds	r7, #12
 8000cfa:	46bd      	mov	sp, r7
 8000cfc:	bc80      	pop	{r7}
 8000cfe:	4770      	bx	lr

08000d00 <HAL_GPIO_TogglePin>:
 8000d00:	b480      	push	{r7}
 8000d02:	b085      	sub	sp, #20
 8000d04:	af00      	add	r7, sp, #0
 8000d06:	6078      	str	r0, [r7, #4]
 8000d08:	460b      	mov	r3, r1
 8000d0a:	807b      	strh	r3, [r7, #2]
 8000d0c:	687b      	ldr	r3, [r7, #4]
 8000d0e:	68db      	ldr	r3, [r3, #12]
 8000d10:	60fb      	str	r3, [r7, #12]
 8000d12:	887a      	ldrh	r2, [r7, #2]
 8000d14:	68fb      	ldr	r3, [r7, #12]
 8000d16:	4013      	ands	r3, r2
 8000d18:	041a      	lsls	r2, r3, #16
 8000d1a:	68fb      	ldr	r3, [r7, #12]
 8000d1c:	43d9      	mvns	r1, r3
 8000d1e:	887b      	ldrh	r3, [r7, #2]
 8000d20:	400b      	ands	r3, r1
 8000d22:	431a      	orrs	r2, r3
 8000d24:	687b      	ldr	r3, [r7, #4]
 8000d26:	611a      	str	r2, [r3, #16]
 8000d28:	bf00      	nop
 8000d2a:	3714      	adds	r7, #20
 8000d2c:	46bd      	mov	sp, r7
 8000d2e:	bc80      	pop	{r7}
 8000d30:	4770      	bx	lr
	...

08000d34 <HAL_RCC_OscConfig>:
 8000d34:	b580      	push	{r7, lr}
 8000d36:	b086      	sub	sp, #24
 8000d38:	af00      	add	r7, sp, #0
 8000d3a:	6078      	str	r0, [r7, #4]
 8000d3c:	687b      	ldr	r3, [r7, #4]
 8000d3e:	2b00      	cmp	r3, #0
 8000d40:	d101      	bne.n	8000d46 <HAL_RCC_OscConfig+0x12>
 8000d42:	2301      	movs	r3, #1
 8000d44:	e272      	b.n	800122c <HAL_RCC_OscConfig+0x4f8>
 8000d46:	687b      	ldr	r3, [r7, #4]
 8000d48:	681b      	ldr	r3, [r3, #0]
 8000d4a:	f003 0301 	and.w	r3, r3, #1
 8000d4e:	2b00      	cmp	r3, #0
 8000d50:	f000 8087 	beq.w	8000e62 <HAL_RCC_OscConfig+0x12e>
 8000d54:	4b92      	ldr	r3, [pc, #584]	; (8000fa0 <HAL_RCC_OscConfig+0x26c>)
 8000d56:	685b      	ldr	r3, [r3, #4]
 8000d58:	f003 030c 	and.w	r3, r3, #12
 8000d5c:	2b04      	cmp	r3, #4
 8000d5e:	d00c      	beq.n	8000d7a <HAL_RCC_OscConfig+0x46>
 8000d60:	4b8f      	ldr	r3, [pc, #572]	; (8000fa0 <HAL_RCC_OscConfig+0x26c>)
 8000d62:	685b      	ldr	r3, [r3, #4]
 8000d64:	f003 030c 	and.w	r3, r3, #12
 8000d68:	2b08      	cmp	r3, #8
 8000d6a:	d112      	bne.n	8000d92 <HAL_RCC_OscConfig+0x5e>
 8000d6c:	4b8c      	ldr	r3, [pc, #560]	; (8000fa0 <HAL_RCC_OscConfig+0x26c>)
 8000d6e:	685b      	ldr	r3, [r3, #4]
 8000d70:	f403 3380 	and.w	r3, r3, #65536	; 0x10000
 8000d74:	f5b3 3f80 	cmp.w	r3, #65536	; 0x10000
 8000d78:	d10b      	bne.n	8000d92 <HAL_RCC_OscConfig+0x5e>
 8000d7a:	4b89      	ldr	r3, [pc, #548]	; (8000fa0 <HAL_RCC_OscConfig+0x26c>)
 8000d7c:	681b      	ldr	r3, [r3, #0]
 8000d7e:	f403 3300 	and.w	r3, r3, #131072	; 0x20000
 8000d82:	2b00      	cmp	r3, #0
 8000d84:	d06c      	beq.n	8000e60 <HAL_RCC_OscConfig+0x12c>
 8000d86:	687b      	ldr	r3, [r7, #4]
 8000d88:	685b      	ldr	r3, [r3, #4]
 8000d8a:	2b00      	cmp	r3, #0
 8000d8c:	d168      	bne.n	8000e60 <HAL_RCC_OscConfig+0x12c>
 8000d8e:	2301      	movs	r3, #1
 8000d90:	e24c      	b.n	800122c <HAL_RCC_OscConfig+0x4f8>
 8000d92:	687b      	ldr	r3, [r7, #4]
 8000d94:	685b      	ldr	r3, [r3, #4]
 8000d96:	f5b3 3f80 	cmp.w	r3, #65536	; 0x10000
 8000d9a:	d106      	bne.n	8000daa <HAL_RCC_OscConfig+0x76>
 8000d9c:	4b80      	ldr	r3, [pc, #512]	; (8000fa0 <HAL_RCC_OscConfig+0x26c>)
 8000d9e:	681b      	ldr	r3, [r3, #0]
 8000da0:	4a7f      	ldr	r2, [pc, #508]	; (8000fa0 <HAL_RCC_OscConfig+0x26c>)
 8000da2:	f443 3380 	orr.w	r3, r3, #65536	; 0x10000
 8000da6:	6013      	str	r3, [r2, #0]
 8000da8:	e02e      	b.n	8000e08 <HAL_RCC_OscConfig+0xd4>
 8000daa:	687b      	ldr	r3, [r7, #4]
 8000dac:	685b      	ldr	r3, [r3, #4]
 8000dae:	2b00      	cmp	r3, #0
 8000db0:	d10c      	bne.n	8000dcc <HAL_RCC_OscConfig+0x98>
 8000db2:	4b7b      	ldr	r3, [pc, #492]	; (8000fa0 <HAL_RCC_OscConfig+0x26c>)
 8000db4:	681b      	ldr	r3, [r3, #0]
 8000db6:	4a7a      	ldr	r2, [pc, #488]	; (8000fa0 <HAL_RCC_OscConfig+0x26c>)
 8000db8:	f423 3380 	bic.w	r3, r3, #65536	; 0x10000
 8000dbc:	6013      	str	r3, [r2, #0]
 8000dbe:	4b78      	ldr	r3, [pc, #480]	; (8000fa0 <HAL_RCC_OscConfig+0x26c>)
 8000dc0:	681b      	ldr	r3, [r3, #0]
 8000dc2:	4a77      	ldr	r2, [pc, #476]	; (8000fa0 <HAL_RCC_OscConfig+0x26c>)
 8000dc4:	f423 2380 	bic.w	r3, r3, #262144	; 0x40000
 8000dc8:	6013      	str	r3, [r2, #0]
 8000dca:	e01d      	b.n	8000e08 <HAL_RCC_OscConfig+0xd4>
 8000dcc:	687b      	ldr	r3, [r7, #4]
 8000dce:	685b      	ldr	r3, [r3, #4]
 8000dd0:	f5b3 2fa0 	cmp.w	r3, #327680	; 0x50000
 8000dd4:	d10c      	bne.n	8000df0 <HAL_RCC_OscConfig+0xbc>
 8000dd6:	4b72      	ldr	r3, [pc, #456]	; (8000fa0 <HAL_RCC_OscConfig+0x26c>)
 8000dd8:	681b      	ldr	r3, [r3, #0]
 8000dda:	4a71      	ldr	r2, [pc, #452]	; (8000fa0 <HAL_RCC_OscConfig+0x26c>)
 8000ddc:	f443 2380 	orr.w	r3, r3, #262144	; 0x40000
 8000de0:	6013      	str	r3, [r2, #0]
 8000de2:	4b6f      	ldr	r3, [pc, #444]	; (8000fa0 <HAL_RCC_OscConfig+0x26c>)
 8000de4:	681b      	ldr	r3, [r3, #0]
 8000de6:	4a6e      	ldr	r2, [pc, #440]	; (8000fa0 <HAL_RCC_OscConfig+0x26c>)
 8000de8:	f443 3380 	orr.w	r3, r3, #65536	; 0x10000
 8000dec:	6013      	str	r3, [r2, #0]
 8000dee:	e00b      	b.n	8000e08 <HAL_RCC_OscConfig+0xd4>
 8000df0:	4b6b      	ldr	r3, [pc, #428]	; (8000fa0 <HAL_RCC_OscConfig+0x26c>)
 8000df2:	681b      	ldr	r3, [r3, #0]
 8000df4:	4a6a      	ldr	r2, [pc, #424]	; (8000fa0 <HAL_RCC_OscConfig+0x26c>)
 8000df6:	f423 3380 	bic.w	r3, r3, #65536	; 0x10000
 8000dfa:	6013      	str	r3, [r2, #0]
 8000dfc:	4b68      	ldr	r3, [pc, #416]	; (8000fa0 <HAL_RCC_OscConfig+0x26c>)
 8000dfe:	681b      	ldr	r3, [r3, #0]
 8000e00:	4a67      	ldr	r2, [pc, #412]	; (8000fa0 <HAL_RCC_OscConfig+0x26c>)
 8000e02:	f423 2380 	bic.w	r3, r3, #262144	; 0x40000
 8000e06:	6013      	str	r3, [r2, #0]
 8000e08:	687b      	ldr	r3, [r7, #4]
 8000e0a:	685b      	ldr	r3, [r3, #4]
 8000e0c:	2b00      	cmp	r3, #0
 8000e0e:	d013      	beq.n	8000e38 <HAL_RCC_OscConfig+0x104>
 8000e10:	f7ff fc10 	bl	8000634 <HAL_GetTick>
 8000e14:	6138      	str	r0, [r7, #16]
 8000e16:	e008      	b.n	8000e2a <HAL_RCC_OscConfig+0xf6>
 8000e18:	f7ff fc0c 	bl	8000634 <HAL_GetTick>
 8000e1c:	4602      	mov	r2, r0
 8000e1e:	693b      	ldr	r3, [r7, #16]
 8000e20:	1ad3      	subs	r3, r2, r3
 8000e22:	2b64      	cmp	r3, #100	; 0x64
 8000e24:	d901      	bls.n	8000e2a <HAL_RCC_OscConfig+0xf6>
 8000e26:	2303      	movs	r3, #3
 8000e28:	e200      	b.n	800122c <HAL_RCC_OscConfig+0x4f8>
 8000e2a:	4b5d      	ldr	r3, [pc, #372]	; (8000fa0 <HAL_RCC_OscConfig+0x26c>)
 8000e2c:	681b      	ldr	r3, [r3, #0]
 8000e2e:	f403 3300 	and.w	r3, r3, #131072	; 0x20000
 8000e32:	2b00      	cmp	r3, #0
 8000e34:	d0f0      	beq.n	8000e18 <HAL_RCC_OscConfig+0xe4>
 8000e36:	e014      	b.n	8000e62 <HAL_RCC_OscConfig+0x12e>
 8000e38:	f7ff fbfc 	bl	8000634 <HAL_GetTick>
 8000e3c:	6138      	str	r0, [r7, #16]
 8000e3e:	e008      	b.n	8000e52 <HAL_RCC_OscConfig+0x11e>
 8000e40:	f7ff fbf8 	bl	8000634 <HAL_GetTick>
 8000e44:	4602      	mov	r2, r0
 8000e46:	693b      	ldr	r3, [r7, #16]
 8000e48:	1ad3      	subs	r3, r2, r3
 8000e4a:	2b64      	cmp	r3, #100	; 0x64
 8000e4c:	d901      	bls.n	8000e52 <HAL_RCC_OscConfig+0x11e>
 8000e4e:	2303      	movs	r3, #3
 8000e50:	e1ec      	b.n	800122c <HAL_RCC_OscConfig+0x4f8>
 8000e52:	4b53      	ldr	r3, [pc, #332]	; (8000fa0 <HAL_RCC_OscConfig+0x26c>)
 8000e54:	681b      	ldr	r3, [r3, #0]
 8000e56:	f403 3300 	and.w	r3, r3, #131072	; 0x20000
 8000e5a:	2b00      	cmp	r3, #0
 8000e5c:	d1f0      	bne.n	8000e40 <HAL_RCC_OscConfig+0x10c>
 8000e5e:	e000      	b.n	8000e62 <HAL_RCC_OscConfig+0x12e>
 8000e60:	bf00      	nop
 8000e62:	687b      	ldr	r3, [r7, #4]
 8000e64:	681b      	ldr	r3, [r3, #0]
 8000e66:	f003 0302 	and.w	r3, r3, #2
 8000e6a:	2b00      	cmp	r3, #0
 8000e6c:	d063      	beq.n	8000f36 <HAL_RCC_OscConfig+0x202>
 8000e6e:	4b4c      	ldr	r3, [pc, #304]	; (8000fa0 <HAL_RCC_OscConfig+0x26c>)
 8000e70:	685b      	ldr	r3, [r3, #4]
 8000e72:	f003 030c 	and.w	r3, r3, #12
 8000e76:	2b00      	cmp	r3, #0
 8000e78:	d00b      	beq.n	8000e92 <HAL_RCC_OscConfig+0x15e>
 8000e7a:	4b49      	ldr	r3, [pc, #292]	; (8000fa0 <HAL_RCC_OscConfig+0x26c>)
 8000e7c:	685b      	ldr	r3, [r3, #4]
 8000e7e:	f003 030c 	and.w	r3, r3, #12
 8000e82:	2b08      	cmp	r3, #8
 8000e84:	d11c      	bne.n	8000ec0 <HAL_RCC_OscConfig+0x18c>
 8000e86:	4b46      	ldr	r3, [pc, #280]	; (8000fa0 <HAL_RCC_OscConfig+0x26c>)
 8000e88:	685b      	ldr	r3, [r3, #4]
 8000e8a:	f403 3380 	and.w	r3, r3, #65536	; 0x10000
 8000e8e:	2b00      	cmp	r3, #0
 8000e90:	d116      	bne.n	8000ec0 <HAL_RCC_OscConfig+0x18c>
 8000e92:	4b43      	ldr	r3, [pc, #268]	; (8000fa0 <HAL_RCC_OscConfig+0x26c>)
 8000e94:	681b      	ldr	r3, [r3, #0]
 8000e96:	f003 0302 	and.w	r3, r3, #2
 8000e9a:	2b00      	cmp	r3, #0
 8000e9c:	d005      	beq.n	8000eaa <HAL_RCC_OscConfig+0x176>
 8000e9e:	687b      	ldr	r3, [r7, #4]
 8000ea0:	691b      	ldr	r3, [r3, #16]
 8000ea2:	2b01      	cmp	r3, #1
 8000ea4:	d001      	beq.n	8000eaa <HAL_RCC_OscConfig+0x176>
 8000ea6:	2301      	movs	r3, #1
 8000ea8:	e1c0      	b.n	800122c <HAL_RCC_OscConfig+0x4f8>
 8000eaa:	4b3d      	ldr	r3, [pc, #244]	; (8000fa0 <HAL_RCC_OscConfig+0x26c>)
 8000eac:	681b      	ldr	r3, [r3, #0]
 8000eae:	f023 02f8 	bic.w	r2, r3, #248	; 0xf8
 8000eb2:	687b      	ldr	r3, [r7, #4]
 8000eb4:	695b      	ldr	r3, [r3, #20]
 8000eb6:	00db      	lsls	r3, r3, #3
 8000eb8:	4939      	ldr	r1, [pc, #228]	; (8000fa0 <HAL_RCC_OscConfig+0x26c>)
 8000eba:	4313      	orrs	r3, r2
 8000ebc:	600b      	str	r3, [r1, #0]
 8000ebe:	e03a      	b.n	8000f36 <HAL_RCC_OscConfig+0x202>
 8000ec0:	687b      	ldr	r3, [r7, #4]
 8000ec2:	691b      	ldr	r3, [r3, #16]
 8000ec4:	2b00      	cmp	r3, #0
 8000ec6:	d020      	beq.n	8000f0a <HAL_RCC_OscConfig+0x1d6>
 8000ec8:	4b36      	ldr	r3, [pc, #216]	; (8000fa4 <HAL_RCC_OscConfig+0x270>)
 8000eca:	2201      	movs	r2, #1
 8000ecc:	601a      	str	r2, [r3, #0]
 8000ece:	f7ff fbb1 	bl	8000634 <HAL_GetTick>
 8000ed2:	6138      	str	r0, [r7, #16]
 8000ed4:	e008      	b.n	8000ee8 <HAL_RCC_OscConfig+0x1b4>
 8000ed6:	f7ff fbad 	bl	8000634 <HAL_GetTick>
 8000eda:	4602      	mov	r2, r0
 8000edc:	693b      	ldr	r3, [r7, #16]
 8000ede:	1ad3      	subs	r3, r2, r3
 8000ee0:	2b02      	cmp	r3, #2
 8000ee2:	d901      	bls.n	8000ee8 <HAL_RCC_OscConfig+0x1b4>
 8000ee4:	2303      	movs	r3, #3
 8000ee6:	e1a1      	b.n	800122c <HAL_RCC_OscConfig+0x4f8>
 8000ee8:	4b2d      	ldr	r3, [pc, #180]	; (8000fa0 <HAL_RCC_OscConfig+0x26c>)
 8000eea:	681b      	ldr	r3, [r3, #0]
 8000eec:	f003 0302 	and.w	r3, r3, #2
 8000ef0:	2b00      	cmp	r3, #0
 8000ef2:	d0f0      	beq.n	8000ed6 <HAL_RCC_OscConfig+0x1a2>
 8000ef4:	4b2a      	ldr	r3, [pc, #168]	; (8000fa0 <HAL_RCC_OscConfig+0x26c>)
 8000ef6:	681b      	ldr	r3, [r3, #0]
 8000ef8:	f023 02f8 	bic.w	r2, r3, #248	; 0xf8
 8000efc:	687b      	ldr	r3, [r7, #4]
 8000efe:	695b      	ldr	r3, [r3, #20]
 8000f00:	00db      	lsls	r3, r3, #3
 8000f02:	4927      	ldr	r1, [pc, #156]	; (8000fa0 <HAL_RCC_OscConfig+0x26c>)
 8000f04:	4313      	orrs	r3, r2
 8000f06:	600b      	str	r3, [r1, #0]
 8000f08:	e015      	b.n	8000f36 <HAL_RCC_OscConfig+0x202>
 8000f0a:	4b26      	ldr	r3, [pc, #152]	; (8000fa4 <HAL_RCC_OscConfig+0x270>)
 8000f0c:	2200      	movs	r2, #0
 8000f0e:	601a      	str	r2, [r3, #0]
 8000f10:	f7ff fb90 	bl	8000634 <HAL_GetTick>
 8000f14:	6138      	str	r0, [r7, #16]
 8000f16:	e008      	b.n	8000f2a <HAL_RCC_OscConfig+0x1f6>
 8000f18:	f7ff fb8c 	bl	8000634 <HAL_GetTick>
 8000f1c:	4602      	mov	r2, r0
 8000f1e:	693b      	ldr	r3, [r7, #16]
 8000f20:	1ad3      	subs	r3, r2, r3
 8000f22:	2b02      	cmp	r3, #2
 8000f24:	d901      	bls.n	8000f2a <HAL_RCC_OscConfig+0x1f6>
 8000f26:	2303      	movs	r3, #3
 8000f28:	e180      	b.n	800122c <HAL_RCC_OscConfig+0x4f8>
 8000f2a:	4b1d      	ldr	r3, [pc, #116]	; (8000fa0 <HAL_RCC_OscConfig+0x26c>)
 8000f2c:	681b      	ldr	r3, [r3, #0]
 8000f2e:	f003 0302 	and.w	r3, r3, #2
 8000f32:	2b00      	cmp	r3, #0
 8000f34:	d1f0      	bne.n	8000f18 <HAL_RCC_OscConfig+0x1e4>
 8000f36:	687b      	ldr	r3, [r7, #4]
 8000f38:	681b      	ldr	r3, [r3, #0]
 8000f3a:	f003 0308 	and.w	r3, r3, #8
 8000f3e:	2b00      	cmp	r3, #0
 8000f40:	d03a      	beq.n	8000fb8 <HAL_RCC_OscConfig+0x284>
 8000f42:	687b      	ldr	r3, [r7, #4]
 8000f44:	699b      	ldr	r3, [r3, #24]
 8000f46:	2b00      	cmp	r3, #0
 8000f48:	d019      	beq.n	8000f7e <HAL_RCC_OscConfig+0x24a>
 8000f4a:	4b17      	ldr	r3, [pc, #92]	; (8000fa8 <HAL_RCC_OscConfig+0x274>)
 8000f4c:	2201      	movs	r2, #1
 8000f4e:	601a      	str	r2, [r3, #0]
 8000f50:	f7ff fb70 	bl	8000634 <HAL_GetTick>
 8000f54:	6138      	str	r0, [r7, #16]
 8000f56:	e008      	b.n	8000f6a <HAL_RCC_OscConfig+0x236>
 8000f58:	f7ff fb6c 	bl	8000634 <HAL_GetTick>
 8000f5c:	4602      	mov	r2, r0
 8000f5e:	693b      	ldr	r3, [r7, #16]
 8000f60:	1ad3      	subs	r3, r2, r3
 8000f62:	2b02      	cmp	r3, #2
 8000f64:	d901      	bls.n	8000f6a <HAL_RCC_OscConfig+0x236>
 8000f66:	2303      	movs	r3, #3
 8000f68:	e160      	b.n	800122c <HAL_RCC_OscConfig+0x4f8>
 8000f6a:	4b0d      	ldr	r3, [pc, #52]	; (8000fa0 <HAL_RCC_OscConfig+0x26c>)
 8000f6c:	6a5b      	ldr	r3, [r3, #36]	; 0x24
 8000f6e:	f003 0302 	and.w	r3, r3, #2
 8000f72:	2b00      	cmp	r3, #0
 8000f74:	d0f0      	beq.n	8000f58 <HAL_RCC_OscConfig+0x224>
 8000f76:	2001      	movs	r0, #1
 8000f78:	f000 face 	bl	8001518 <RCC_Delay>
 8000f7c:	e01c      	b.n	8000fb8 <HAL_RCC_OscConfig+0x284>
 8000f7e:	4b0a      	ldr	r3, [pc, #40]	; (8000fa8 <HAL_RCC_OscConfig+0x274>)
 8000f80:	2200      	movs	r2, #0
 8000f82:	601a      	str	r2, [r3, #0]
 8000f84:	f7ff fb56 	bl	8000634 <HAL_GetTick>
 8000f88:	6138      	str	r0, [r7, #16]
 8000f8a:	e00f      	b.n	8000fac <HAL_RCC_OscConfig+0x278>
 8000f8c:	f7ff fb52 	bl	8000634 <HAL_GetTick>
 8000f90:	4602      	mov	r2, r0
 8000f92:	693b      	ldr	r3, [r7, #16]
 8000f94:	1ad3      	subs	r3, r2, r3
 8000f96:	2b02      	cmp	r3, #2
 8000f98:	d908      	bls.n	8000fac <HAL_RCC_OscConfig+0x278>
 8000f9a:	2303      	movs	r3, #3
 8000f9c:	e146      	b.n	800122c <HAL_RCC_OscConfig+0x4f8>
 8000f9e:	bf00      	nop
 8000fa0:	40021000 	.word	0x40021000
 8000fa4:	42420000 	.word	0x42420000
 8000fa8:	42420480 	.word	0x42420480
 8000fac:	4b92      	ldr	r3, [pc, #584]	; (80011f8 <HAL_RCC_OscConfig+0x4c4>)
 8000fae:	6a5b      	ldr	r3, [r3, #36]	; 0x24
 8000fb0:	f003 0302 	and.w	r3, r3, #2
 8000fb4:	2b00      	cmp	r3, #0
 8000fb6:	d1e9      	bne.n	8000f8c <HAL_RCC_OscConfig+0x258>
 8000fb8:	687b      	ldr	r3, [r7, #4]
 8000fba:	681b      	ldr	r3, [r3, #0]
 8000fbc:	f003 0304 	and.w	r3, r3, #4
 8000fc0:	2b00      	cmp	r3, #0
 8000fc2:	f000 80a6 	beq.w	8001112 <HAL_RCC_OscConfig+0x3de>
 8000fc6:	2300      	movs	r3, #0
 8000fc8:	75fb      	strb	r3, [r7, #23]
 8000fca:	4b8b      	ldr	r3, [pc, #556]	; (80011f8 <HAL_RCC_OscConfig+0x4c4>)
 8000fcc:	69db      	ldr	r3, [r3, #28]
 8000fce:	f003 5380 	and.w	r3, r3, #268435456	; 0x10000000
 8000fd2:	2b00      	cmp	r3, #0
 8000fd4:	d10d      	bne.n	8000ff2 <HAL_RCC_OscConfig+0x2be>
 8000fd6:	4b88      	ldr	r3, [pc, #544]	; (80011f8 <HAL_RCC_OscConfig+0x4c4>)
 8000fd8:	69db      	ldr	r3, [r3, #28]
 8000fda:	4a87      	ldr	r2, [pc, #540]	; (80011f8 <HAL_RCC_OscConfig+0x4c4>)
 8000fdc:	f043 5380 	orr.w	r3, r3, #268435456	; 0x10000000
 8000fe0:	61d3      	str	r3, [r2, #28]
 8000fe2:	4b85      	ldr	r3, [pc, #532]	; (80011f8 <HAL_RCC_OscConfig+0x4c4>)
 8000fe4:	69db      	ldr	r3, [r3, #28]
 8000fe6:	f003 5380 	and.w	r3, r3, #268435456	; 0x10000000
 8000fea:	60bb      	str	r3, [r7, #8]
 8000fec:	68bb      	ldr	r3, [r7, #8]
 8000fee:	2301      	movs	r3, #1
 8000ff0:	75fb      	strb	r3, [r7, #23]
 8000ff2:	4b82      	ldr	r3, [pc, #520]	; (80011fc <HAL_RCC_OscConfig+0x4c8>)
 8000ff4:	681b      	ldr	r3, [r3, #0]
 8000ff6:	f403 7380 	and.w	r3, r3, #256	; 0x100
 8000ffa:	2b00      	cmp	r3, #0
 8000ffc:	d118      	bne.n	8001030 <HAL_RCC_OscConfig+0x2fc>
 8000ffe:	4b7f      	ldr	r3, [pc, #508]	; (80011fc <HAL_RCC_OscConfig+0x4c8>)
 8001000:	681b      	ldr	r3, [r3, #0]
 8001002:	4a7e      	ldr	r2, [pc, #504]	; (80011fc <HAL_RCC_OscConfig+0x4c8>)
 8001004:	f443 7380 	orr.w	r3, r3, #256	; 0x100
 8001008:	6013      	str	r3, [r2, #0]
 800100a:	f7ff fb13 	bl	8000634 <HAL_GetTick>
 800100e:	6138      	str	r0, [r7, #16]
 8001010:	e008      	b.n	8001024 <HAL_RCC_OscConfig+0x2f0>
 8001012:	f7ff fb0f 	bl	8000634 <HAL_GetTick>
 8001016:	4602      	mov	r2, r0
 8001018:	693b      	ldr	r3, [r7, #16]
 800101a:	1ad3      	subs	r3, r2, r3
 800101c:	2b64      	cmp	r3, #100	; 0x64
 800101e:	d901      	bls.n	8001024 <HAL_RCC_OscConfig+0x2f0>
 8001020:	2303      	movs	r3, #3
 8001022:	e103      	b.n	800122c <HAL_RCC_OscConfig+0x4f8>
 8001024:	4b75      	ldr	r3, [pc, #468]	; (80011fc <HAL_RCC_OscConfig+0x4c8>)
 8001026:	681b      	ldr	r3, [r3, #0]
 8001028:	f403 7380 	and.w	r3, r3, #256	; 0x100
 800102c:	2b00      	cmp	r3, #0
 800102e:	d0f0      	beq.n	8001012 <HAL_RCC_OscConfig+0x2de>
 8001030:	687b      	ldr	r3, [r7, #4]
 8001032:	68db      	ldr	r3, [r3, #12]
 8001034:	2b01      	cmp	r3, #1
 8001036:	d106      	bne.n	8001046 <HAL_RCC_OscConfig+0x312>
 8001038:	4b6f      	ldr	r3, [pc, #444]	; (80011f8 <HAL_RCC_OscConfig+0x4c4>)
 800103a:	6a1b      	ldr	r3, [r3, #32]
 800103c:	4a6e      	ldr	r2, [pc, #440]	; (80011f8 <HAL_RCC_OscConfig+0x4c4>)
 800103e:	f043 0301 	orr.w	r3, r3, #1
 8001042:	6213      	str	r3, [r2, #32]
 8001044:	e02d      	b.n	80010a2 <HAL_RCC_OscConfig+0x36e>
 8001046:	687b      	ldr	r3, [r7, #4]
 8001048:	68db      	ldr	r3, [r3, #12]
 800104a:	2b00      	cmp	r3, #0
 800104c:	d10c      	bne.n	8001068 <HAL_RCC_OscConfig+0x334>
 800104e:	4b6a      	ldr	r3, [pc, #424]	; (80011f8 <HAL_RCC_OscConfig+0x4c4>)
 8001050:	6a1b      	ldr	r3, [r3, #32]
 8001052:	4a69      	ldr	r2, [pc, #420]	; (80011f8 <HAL_RCC_OscConfig+0x4c4>)
 8001054:	f023 0301 	bic.w	r3, r3, #1
 8001058:	6213      	str	r3, [r2, #32]
 800105a:	4b67      	ldr	r3, [pc, #412]	; (80011f8 <HAL_RCC_OscConfig+0x4c4>)
 800105c:	6a1b      	ldr	r3, [r3, #32]
 800105e:	4a66      	ldr	r2, [pc, #408]	; (80011f8 <HAL_RCC_OscConfig+0x4c4>)
 8001060:	f023 0304 	bic.w	r3, r3, #4
 8001064:	6213      	str	r3, [r2, #32]
 8001066:	e01c      	b.n	80010a2 <HAL_RCC_OscConfig+0x36e>
 8001068:	687b      	ldr	r3, [r7, #4]
 800106a:	68db      	ldr	r3, [r3, #12]
 800106c:	2b05      	cmp	r3, #5
 800106e:	d10c      	bne.n	800108a <HAL_RCC_OscConfig+0x356>
 8001070:	4b61      	ldr	r3, [pc, #388]	; (80011f8 <HAL_RCC_OscConfig+0x4c4>)
 8001072:	6a1b      	ldr	r3, [r3, #32]
 8001074:	4a60      	ldr	r2, [pc, #384]	; (80011f8 <HAL_RCC_OscConfig+0x4c4>)
 8001076:	f043 0304 	orr.w	r3, r3, #4
 800107a:	6213      	str	r3, [r2, #32]
 800107c:	4b5e      	ldr	r3, [pc, #376]	; (80011f8 <HAL_RCC_OscConfig+0x4c4>)
 800107e:	6a1b      	ldr	r3, [r3, #32]
 8001080:	4a5d      	ldr	r2, [pc, #372]	; (80011f8 <HAL_RCC_OscConfig+0x4c4>)
 8001082:	f043 0301 	orr.w	r3, r3, #1
 8001086:	6213      	str	r3, [r2, #32]
 8001088:	e00b      	b.n	80010a2 <HAL_RCC_OscConfig+0x36e>
 800108a:	4b5b      	ldr	r3, [pc, #364]	; (80011f8 <HAL_RCC_OscConfig+0x4c4>)
 800108c:	6a1b      	ldr	r3, [r3, #32]
 800108e:	4a5a      	ldr	r2, [pc, #360]	; (80011f8 <HAL_RCC_OscConfig+0x4c4>)
 8001090:	f023 0301 	bic.w	r3, r3, #1
 8001094:	6213      	str	r3, [r2, #32]
 8001096:	4b58      	ldr	r3, [pc, #352]	; (80011f8 <HAL_RCC_OscConfig+0x4c4>)
 8001098:	6a1b      	ldr	r3, [r3, #32]
 800109a:	4a57      	ldr	r2, [pc, #348]	; (80011f8 <HAL_RCC_OscConfig+0x4c4>)
 800109c:	f023 0304 	bic.w	r3, r3, #4
 80010a0:	6213      	str	r3, [r2, #32]
 80010a2:	687b      	ldr	r3, [r7, #4]
 80010a4:	68db      	ldr	r3, [r3, #12]
 80010a6:	2b00      	cmp	r3, #0
 80010a8:	d015      	beq.n	80010d6 <HAL_RCC_OscConfig+0x3a2>
 80010aa:	f7ff fac3 	bl	8000634 <HAL_GetTick>
 80010ae:	6138      	str	r0, [r7, #16]
 80010b0:	e00a      	b.n	80010c8 <HAL_RCC_OscConfig+0x394>
 80010b2:	f7ff fabf 	bl	8000634 <HAL_GetTick>
 80010b6:	4602      	mov	r2, r0
 80010b8:	693b      	ldr	r3, [r7, #16]
 80010ba:	1ad3      	subs	r3, r2, r3
 80010bc:	f241 3288 	movw	r2, #5000	; 0x1388
 80010c0:	4293      	cmp	r3, r2
 80010c2:	d901      	bls.n	80010c8 <HAL_RCC_OscConfig+0x394>
 80010c4:	2303      	movs	r3, #3
 80010c6:	e0b1      	b.n	800122c <HAL_RCC_OscConfig+0x4f8>
 80010c8:	4b4b      	ldr	r3, [pc, #300]	; (80011f8 <HAL_RCC_OscConfig+0x4c4>)
 80010ca:	6a1b      	ldr	r3, [r3, #32]
 80010cc:	f003 0302 	and.w	r3, r3, #2
 80010d0:	2b00      	cmp	r3, #0
 80010d2:	d0ee      	beq.n	80010b2 <HAL_RCC_OscConfig+0x37e>
 80010d4:	e014      	b.n	8001100 <HAL_RCC_OscConfig+0x3cc>
 80010d6:	f7ff faad 	bl	8000634 <HAL_GetTick>
 80010da:	6138      	str	r0, [r7, #16]
 80010dc:	e00a      	b.n	80010f4 <HAL_RCC_OscConfig+0x3c0>
 80010de:	f7ff faa9 	bl	8000634 <HAL_GetTick>
 80010e2:	4602      	mov	r2, r0
 80010e4:	693b      	ldr	r3, [r7, #16]
 80010e6:	1ad3      	subs	r3, r2, r3
 80010e8:	f241 3288 	movw	r2, #5000	; 0x1388
 80010ec:	4293      	cmp	r3, r2
 80010ee:	d901      	bls.n	80010f4 <HAL_RCC_OscConfig+0x3c0>
 80010f0:	2303      	movs	r3, #3
 80010f2:	e09b      	b.n	800122c <HAL_RCC_OscConfig+0x4f8>
 80010f4:	4b40      	ldr	r3, [pc, #256]	; (80011f8 <HAL_RCC_OscConfig+0x4c4>)
 80010f6:	6a1b      	ldr	r3, [r3, #32]
 80010f8:	f003 0302 	and.w	r3, r3, #2
 80010fc:	2b00      	cmp	r3, #0
 80010fe:	d1ee      	bne.n	80010de <HAL_RCC_OscConfig+0x3aa>
 8001100:	7dfb      	ldrb	r3, [r7, #23]
 8001102:	2b01      	cmp	r3, #1
 8001104:	d105      	bne.n	8001112 <HAL_RCC_OscConfig+0x3de>
 8001106:	4b3c      	ldr	r3, [pc, #240]	; (80011f8 <HAL_RCC_OscConfig+0x4c4>)
 8001108:	69db      	ldr	r3, [r3, #28]
 800110a:	4a3b      	ldr	r2, [pc, #236]	; (80011f8 <HAL_RCC_OscConfig+0x4c4>)
 800110c:	f023 5380 	bic.w	r3, r3, #268435456	; 0x10000000
 8001110:	61d3      	str	r3, [r2, #28]
 8001112:	687b      	ldr	r3, [r7, #4]
 8001114:	69db      	ldr	r3, [r3, #28]
 8001116:	2b00      	cmp	r3, #0
 8001118:	f000 8087 	beq.w	800122a <HAL_RCC_OscConfig+0x4f6>
 800111c:	4b36      	ldr	r3, [pc, #216]	; (80011f8 <HAL_RCC_OscConfig+0x4c4>)
 800111e:	685b      	ldr	r3, [r3, #4]
 8001120:	f003 030c 	and.w	r3, r3, #12
 8001124:	2b08      	cmp	r3, #8
 8001126:	d061      	beq.n	80011ec <HAL_RCC_OscConfig+0x4b8>
 8001128:	687b      	ldr	r3, [r7, #4]
 800112a:	69db      	ldr	r3, [r3, #28]
 800112c:	2b02      	cmp	r3, #2
 800112e:	d146      	bne.n	80011be <HAL_RCC_OscConfig+0x48a>
 8001130:	4b33      	ldr	r3, [pc, #204]	; (8001200 <HAL_RCC_OscConfig+0x4cc>)
 8001132:	2200      	movs	r2, #0
 8001134:	601a      	str	r2, [r3, #0]
 8001136:	f7ff fa7d 	bl	8000634 <HAL_GetTick>
 800113a:	6138      	str	r0, [r7, #16]
 800113c:	e008      	b.n	8001150 <HAL_RCC_OscConfig+0x41c>
 800113e:	f7ff fa79 	bl	8000634 <HAL_GetTick>
 8001142:	4602      	mov	r2, r0
 8001144:	693b      	ldr	r3, [r7, #16]
 8001146:	1ad3      	subs	r3, r2, r3
 8001148:	2b02      	cmp	r3, #2
 800114a:	d901      	bls.n	8001150 <HAL_RCC_OscConfig+0x41c>
 800114c:	2303      	movs	r3, #3
 800114e:	e06d      	b.n	800122c <HAL_RCC_OscConfig+0x4f8>
 8001150:	4b29      	ldr	r3, [pc, #164]	; (80011f8 <HAL_RCC_OscConfig+0x4c4>)
 8001152:	681b      	ldr	r3, [r3, #0]
 8001154:	f003 7300 	and.w	r3, r3, #33554432	; 0x2000000
 8001158:	2b00      	cmp	r3, #0
 800115a:	d1f0      	bne.n	800113e <HAL_RCC_OscConfig+0x40a>
 800115c:	687b      	ldr	r3, [r7, #4]
 800115e:	6a1b      	ldr	r3, [r3, #32]
 8001160:	f5b3 3f80 	cmp.w	r3, #65536	; 0x10000
 8001164:	d108      	bne.n	8001178 <HAL_RCC_OscConfig+0x444>
 8001166:	4b24      	ldr	r3, [pc, #144]	; (80011f8 <HAL_RCC_OscConfig+0x4c4>)
 8001168:	685b      	ldr	r3, [r3, #4]
 800116a:	f423 3200 	bic.w	r2, r3, #131072	; 0x20000
 800116e:	687b      	ldr	r3, [r7, #4]
 8001170:	689b      	ldr	r3, [r3, #8]
 8001172:	4921      	ldr	r1, [pc, #132]	; (80011f8 <HAL_RCC_OscConfig+0x4c4>)
 8001174:	4313      	orrs	r3, r2
 8001176:	604b      	str	r3, [r1, #4]
 8001178:	4b1f      	ldr	r3, [pc, #124]	; (80011f8 <HAL_RCC_OscConfig+0x4c4>)
 800117a:	685b      	ldr	r3, [r3, #4]
 800117c:	f423 1274 	bic.w	r2, r3, #3997696	; 0x3d0000
 8001180:	687b      	ldr	r3, [r7, #4]
 8001182:	6a19      	ldr	r1, [r3, #32]
 8001184:	687b      	ldr	r3, [r7, #4]
 8001186:	6a5b      	ldr	r3, [r3, #36]	; 0x24
 8001188:	430b      	orrs	r3, r1
 800118a:	491b      	ldr	r1, [pc, #108]	; (80011f8 <HAL_RCC_OscConfig+0x4c4>)
 800118c:	4313      	orrs	r3, r2
 800118e:	604b      	str	r3, [r1, #4]
 8001190:	4b1b      	ldr	r3, [pc, #108]	; (8001200 <HAL_RCC_OscConfig+0x4cc>)
 8001192:	2201      	movs	r2, #1
 8001194:	601a      	str	r2, [r3, #0]
 8001196:	f7ff fa4d 	bl	8000634 <HAL_GetTick>
 800119a:	6138      	str	r0, [r7, #16]
 800119c:	e008      	b.n	80011b0 <HAL_RCC_OscConfig+0x47c>
 800119e:	f7ff fa49 	bl	8000634 <HAL_GetTick>
 80011a2:	4602      	mov	r2, r0
 80011a4:	693b      	ldr	r3, [r7, #16]
 80011a6:	1ad3      	subs	r3, r2, r3
 80011a8:	2b02      	cmp	r3, #2
 80011aa:	d901      	bls.n	80011b0 <HAL_RCC_OscConfig+0x47c>
 80011ac:	2303      	movs	r3, #3
 80011ae:	e03d      	b.n	800122c <HAL_RCC_OscConfig+0x4f8>
 80011b0:	4b11      	ldr	r3, [pc, #68]	; (80011f8 <HAL_RCC_OscConfig+0x4c4>)
 80011b2:	681b      	ldr	r3, [r3, #0]
 80011b4:	f003 7300 	and.w	r3, r3, #33554432	; 0x2000000
 80011b8:	2b00      	cmp	r3, #0
 80011ba:	d0f0      	beq.n	800119e <HAL_RCC_OscConfig+0x46a>
 80011bc:	e035      	b.n	800122a <HAL_RCC_OscConfig+0x4f6>
 80011be:	4b10      	ldr	r3, [pc, #64]	; (8001200 <HAL_RCC_OscConfig+0x4cc>)
 80011c0:	2200      	movs	r2, #0
 80011c2:	601a      	str	r2, [r3, #0]
 80011c4:	f7ff fa36 	bl	8000634 <HAL_GetTick>
 80011c8:	6138      	str	r0, [r7, #16]
 80011ca:	e008      	b.n	80011de <HAL_RCC_OscConfig+0x4aa>
 80011cc:	f7ff fa32 	bl	8000634 <HAL_GetTick>
 80011d0:	4602      	mov	r2, r0
 80011d2:	693b      	ldr	r3, [r7, #16]
 80011d4:	1ad3      	subs	r3, r2, r3
 80011d6:	2b02      	cmp	r3, #2
 80011d8:	d901      	bls.n	80011de <HAL_RCC_OscConfig+0x4aa>
 80011da:	2303      	movs	r3, #3
 80011dc:	e026      	b.n	800122c <HAL_RCC_OscConfig+0x4f8>
 80011de:	4b06      	ldr	r3, [pc, #24]	; (80011f8 <HAL_RCC_OscConfig+0x4c4>)
 80011e0:	681b      	ldr	r3, [r3, #0]
 80011e2:	f003 7300 	and.w	r3, r3, #33554432	; 0x2000000
 80011e6:	2b00      	cmp	r3, #0
 80011e8:	d1f0      	bne.n	80011cc <HAL_RCC_OscConfig+0x498>
 80011ea:	e01e      	b.n	800122a <HAL_RCC_OscConfig+0x4f6>
 80011ec:	687b      	ldr	r3, [r7, #4]
 80011ee:	69db      	ldr	r3, [r3, #28]
 80011f0:	2b01      	cmp	r3, #1
 80011f2:	d107      	bne.n	8001204 <HAL_RCC_OscConfig+0x4d0>
 80011f4:	2301      	movs	r3, #1
 80011f6:	e019      	b.n	800122c <HAL_RCC_OscConfig+0x4f8>
 80011f8:	40021000 	.word	0x40021000
 80011fc:	40007000 	.word	0x40007000
 8001200:	42420060 	.word	0x42420060
 8001204:	4b0b      	ldr	r3, [pc, #44]	; (8001234 <HAL_RCC_OscConfig+0x500>)
 8001206:	685b      	ldr	r3, [r3, #4]
 8001208:	60fb      	str	r3, [r7, #12]
 800120a:	68fb      	ldr	r3, [r7, #12]
 800120c:	f403 3280 	and.w	r2, r3, #65536	; 0x10000
 8001210:	687b      	ldr	r3, [r7, #4]
 8001212:	6a1b      	ldr	r3, [r3, #32]
 8001214:	429a      	cmp	r2, r3
 8001216:	d106      	bne.n	8001226 <HAL_RCC_OscConfig+0x4f2>
 8001218:	68fb      	ldr	r3, [r7, #12]
 800121a:	f403 1270 	and.w	r2, r3, #3932160	; 0x3c0000
 800121e:	687b      	ldr	r3, [r7, #4]
 8001220:	6a5b      	ldr	r3, [r3, #36]	; 0x24
 8001222:	429a      	cmp	r2, r3
 8001224:	d001      	beq.n	800122a <HAL_RCC_OscConfig+0x4f6>
 8001226:	2301      	movs	r3, #1
 8001228:	e000      	b.n	800122c <HAL_RCC_OscConfig+0x4f8>
 800122a:	2300      	movs	r3, #0
 800122c:	4618      	mov	r0, r3
 800122e:	3718      	adds	r7, #24
 8001230:	46bd      	mov	sp, r7
 8001232:	bd80      	pop	{r7, pc}
 8001234:	40021000 	.word	0x40021000

08001238 <HAL_RCC_ClockConfig>:
 8001238:	b580      	push	{r7, lr}
 800123a:	b084      	sub	sp, #16
 800123c:	af00      	add	r7, sp, #0
 800123e:	6078      	str	r0, [r7, #4]
 8001240:	6039      	str	r1, [r7, #0]
 8001242:	687b      	ldr	r3, [r7, #4]
 8001244:	2b00      	cmp	r3, #0
 8001246:	d101      	bne.n	800124c <HAL_RCC_ClockConfig+0x14>
 8001248:	2301      	movs	r3, #1
 800124a:	e0d0      	b.n	80013ee <HAL_RCC_ClockConfig+0x1b6>
 800124c:	4b6a      	ldr	r3, [pc, #424]	; (80013f8 <HAL_RCC_ClockConfig+0x1c0>)
 800124e:	681b      	ldr	r3, [r3, #0]
 8001250:	f003 0307 	and.w	r3, r3, #7
 8001254:	683a      	ldr	r2, [r7, #0]
 8001256:	429a      	cmp	r2, r3
 8001258:	d910      	bls.n	800127c <HAL_RCC_ClockConfig+0x44>
 800125a:	4b67      	ldr	r3, [pc, #412]	; (80013f8 <HAL_RCC_ClockConfig+0x1c0>)
 800125c:	681b      	ldr	r3, [r3, #0]
 800125e:	f023 0207 	bic.w	r2, r3, #7
 8001262:	4965      	ldr	r1, [pc, #404]	; (80013f8 <HAL_RCC_ClockConfig+0x1c0>)
 8001264:	683b      	ldr	r3, [r7, #0]
 8001266:	4313      	orrs	r3, r2
 8001268:	600b      	str	r3, [r1, #0]
 800126a:	4b63      	ldr	r3, [pc, #396]	; (80013f8 <HAL_RCC_ClockConfig+0x1c0>)
 800126c:	681b      	ldr	r3, [r3, #0]
 800126e:	f003 0307 	and.w	r3, r3, #7
 8001272:	683a      	ldr	r2, [r7, #0]
 8001274:	429a      	cmp	r2, r3
 8001276:	d001      	beq.n	800127c <HAL_RCC_ClockConfig+0x44>
 8001278:	2301      	movs	r3, #1
 800127a:	e0b8      	b.n	80013ee <HAL_RCC_ClockConfig+0x1b6>
 800127c:	687b      	ldr	r3, [r7, #4]
 800127e:	681b      	ldr	r3, [r3, #0]
 8001280:	f003 0302 	and.w	r3, r3, #2
 8001284:	2b00      	cmp	r3, #0
 8001286:	d020      	beq.n	80012ca <HAL_RCC_ClockConfig+0x92>
 8001288:	687b      	ldr	r3, [r7, #4]
 800128a:	681b      	ldr	r3, [r3, #0]
 800128c:	f003 0304 	and.w	r3, r3, #4
 8001290:	2b00      	cmp	r3, #0
 8001292:	d005      	beq.n	80012a0 <HAL_RCC_ClockConfig+0x68>
 8001294:	4b59      	ldr	r3, [pc, #356]	; (80013fc <HAL_RCC_ClockConfig+0x1c4>)
 8001296:	685b      	ldr	r3, [r3, #4]
 8001298:	4a58      	ldr	r2, [pc, #352]	; (80013fc <HAL_RCC_ClockConfig+0x1c4>)
 800129a:	f443 63e0 	orr.w	r3, r3, #1792	; 0x700
 800129e:	6053      	str	r3, [r2, #4]
 80012a0:	687b      	ldr	r3, [r7, #4]
 80012a2:	681b      	ldr	r3, [r3, #0]
 80012a4:	f003 0308 	and.w	r3, r3, #8
 80012a8:	2b00      	cmp	r3, #0
 80012aa:	d005      	beq.n	80012b8 <HAL_RCC_ClockConfig+0x80>
 80012ac:	4b53      	ldr	r3, [pc, #332]	; (80013fc <HAL_RCC_ClockConfig+0x1c4>)
 80012ae:	685b      	ldr	r3, [r3, #4]
 80012b0:	4a52      	ldr	r2, [pc, #328]	; (80013fc <HAL_RCC_ClockConfig+0x1c4>)
 80012b2:	f443 5360 	orr.w	r3, r3, #14336	; 0x3800
 80012b6:	6053      	str	r3, [r2, #4]
 80012b8:	4b50      	ldr	r3, [pc, #320]	; (80013fc <HAL_RCC_ClockConfig+0x1c4>)
 80012ba:	685b      	ldr	r3, [r3, #4]
 80012bc:	f023 02f0 	bic.w	r2, r3, #240	; 0xf0
 80012c0:	687b      	ldr	r3, [r7, #4]
 80012c2:	689b      	ldr	r3, [r3, #8]
 80012c4:	494d      	ldr	r1, [pc, #308]	; (80013fc <HAL_RCC_ClockConfig+0x1c4>)
 80012c6:	4313      	orrs	r3, r2
 80012c8:	604b      	str	r3, [r1, #4]
 80012ca:	687b      	ldr	r3, [r7, #4]
 80012cc:	681b      	ldr	r3, [r3, #0]
 80012ce:	f003 0301 	and.w	r3, r3, #1
 80012d2:	2b00      	cmp	r3, #0
 80012d4:	d040      	beq.n	8001358 <HAL_RCC_ClockConfig+0x120>
 80012d6:	687b      	ldr	r3, [r7, #4]
 80012d8:	685b      	ldr	r3, [r3, #4]
 80012da:	2b01      	cmp	r3, #1
 80012dc:	d107      	bne.n	80012ee <HAL_RCC_ClockConfig+0xb6>
 80012de:	4b47      	ldr	r3, [pc, #284]	; (80013fc <HAL_RCC_ClockConfig+0x1c4>)
 80012e0:	681b      	ldr	r3, [r3, #0]
 80012e2:	f403 3300 	and.w	r3, r3, #131072	; 0x20000
 80012e6:	2b00      	cmp	r3, #0
 80012e8:	d115      	bne.n	8001316 <HAL_RCC_ClockConfig+0xde>
 80012ea:	2301      	movs	r3, #1
 80012ec:	e07f      	b.n	80013ee <HAL_RCC_ClockConfig+0x1b6>
 80012ee:	687b      	ldr	r3, [r7, #4]
 80012f0:	685b      	ldr	r3, [r3, #4]
 80012f2:	2b02      	cmp	r3, #2
 80012f4:	d107      	bne.n	8001306 <HAL_RCC_ClockConfig+0xce>
 80012f6:	4b41      	ldr	r3, [pc, #260]	; (80013fc <HAL_RCC_ClockConfig+0x1c4>)
 80012f8:	681b      	ldr	r3, [r3, #0]
 80012fa:	f003 7300 	and.w	r3, r3, #33554432	; 0x2000000
 80012fe:	2b00      	cmp	r3, #0
 8001300:	d109      	bne.n	8001316 <HAL_RCC_ClockConfig+0xde>
 8001302:	2301      	movs	r3, #1
 8001304:	e073      	b.n	80013ee <HAL_RCC_ClockConfig+0x1b6>
 8001306:	4b3d      	ldr	r3, [pc, #244]	; (80013fc <HAL_RCC_ClockConfig+0x1c4>)
 8001308:	681b      	ldr	r3, [r3, #0]
 800130a:	f003 0302 	and.w	r3, r3, #2
 800130e:	2b00      	cmp	r3, #0
 8001310:	d101      	bne.n	8001316 <HAL_RCC_ClockConfig+0xde>
 8001312:	2301      	movs	r3, #1
 8001314:	e06b      	b.n	80013ee <HAL_RCC_ClockConfig+0x1b6>
 8001316:	4b39      	ldr	r3, [pc, #228]	; (80013fc <HAL_RCC_ClockConfig+0x1c4>)
 8001318:	685b      	ldr	r3, [r3, #4]
 800131a:	f023 0203 	bic.w	r2, r3, #3
 800131e:	687b      	ldr	r3, [r7, #4]
 8001320:	685b      	ldr	r3, [r3, #4]
 8001322:	4936      	ldr	r1, [pc, #216]	; (80013fc <HAL_RCC_ClockConfig+0x1c4>)
 8001324:	4313      	orrs	r3, r2
 8001326:	604b      	str	r3, [r1, #4]
 8001328:	f7ff f984 	bl	8000634 <HAL_GetTick>
 800132c:	60f8      	str	r0, [r7, #12]
 800132e:	e00a      	b.n	8001346 <HAL_RCC_ClockConfig+0x10e>
 8001330:	f7ff f980 	bl	8000634 <HAL_GetTick>
 8001334:	4602      	mov	r2, r0
 8001336:	68fb      	ldr	r3, [r7, #12]
 8001338:	1ad3      	subs	r3, r2, r3
 800133a:	f241 3288 	movw	r2, #5000	; 0x1388
 800133e:	4293      	cmp	r3, r2
 8001340:	d901      	bls.n	8001346 <HAL_RCC_ClockConfig+0x10e>
 8001342:	2303      	movs	r3, #3
 8001344:	e053      	b.n	80013ee <HAL_RCC_ClockConfig+0x1b6>
 8001346:	4b2d      	ldr	r3, [pc, #180]	; (80013fc <HAL_RCC_ClockConfig+0x1c4>)
 8001348:	685b      	ldr	r3, [r3, #4]
 800134a:	f003 020c 	and.w	r2, r3, #12
 800134e:	687b      	ldr	r3, [r7, #4]
 8001350:	685b      	ldr	r3, [r3, #4]
 8001352:	009b      	lsls	r3, r3, #2
 8001354:	429a      	cmp	r2, r3
 8001356:	d1eb      	bne.n	8001330 <HAL_RCC_ClockConfig+0xf8>
 8001358:	4b27      	ldr	r3, [pc, #156]	; (80013f8 <HAL_RCC_ClockConfig+0x1c0>)
 800135a:	681b      	ldr	r3, [r3, #0]
 800135c:	f003 0307 	and.w	r3, r3, #7
 8001360:	683a      	ldr	r2, [r7, #0]
 8001362:	429a      	cmp	r2, r3
 8001364:	d210      	bcs.n	8001388 <HAL_RCC_ClockConfig+0x150>
 8001366:	4b24      	ldr	r3, [pc, #144]	; (80013f8 <HAL_RCC_ClockConfig+0x1c0>)
 8001368:	681b      	ldr	r3, [r3, #0]
 800136a:	f023 0207 	bic.w	r2, r3, #7
 800136e:	4922      	ldr	r1, [pc, #136]	; (80013f8 <HAL_RCC_ClockConfig+0x1c0>)
 8001370:	683b      	ldr	r3, [r7, #0]
 8001372:	4313      	orrs	r3, r2
 8001374:	600b      	str	r3, [r1, #0]
 8001376:	4b20      	ldr	r3, [pc, #128]	; (80013f8 <HAL_RCC_ClockConfig+0x1c0>)
 8001378:	681b      	ldr	r3, [r3, #0]
 800137a:	f003 0307 	and.w	r3, r3, #7
 800137e:	683a      	ldr	r2, [r7, #0]
 8001380:	429a      	cmp	r2, r3
 8001382:	d001      	beq.n	8001388 <HAL_RCC_ClockConfig+0x150>
 8001384:	2301      	movs	r3, #1
 8001386:	e032      	b.n	80013ee <HAL_RCC_ClockConfig+0x1b6>
 8001388:	687b      	ldr	r3, [r7, #4]
 800138a:	681b      	ldr	r3, [r3, #0]
 800138c:	f003 0304 	and.w	r3, r3, #4
 8001390:	2b00      	cmp	r3, #0
 8001392:	d008      	beq.n	80013a6 <HAL_RCC_ClockConfig+0x16e>
 8001394:	4b19      	ldr	r3, [pc, #100]	; (80013fc <HAL_RCC_ClockConfig+0x1c4>)
 8001396:	685b      	ldr	r3, [r3, #4]
 8001398:	f423 62e0 	bic.w	r2, r3, #1792	; 0x700
 800139c:	687b      	ldr	r3, [r7, #4]
 800139e:	68db      	ldr	r3, [r3, #12]
 80013a0:	4916      	ldr	r1, [pc, #88]	; (80013fc <HAL_RCC_ClockConfig+0x1c4>)
 80013a2:	4313      	orrs	r3, r2
 80013a4:	604b      	str	r3, [r1, #4]
 80013a6:	687b      	ldr	r3, [r7, #4]
 80013a8:	681b      	ldr	r3, [r3, #0]
 80013aa:	f003 0308 	and.w	r3, r3, #8
 80013ae:	2b00      	cmp	r3, #0
 80013b0:	d009      	beq.n	80013c6 <HAL_RCC_ClockConfig+0x18e>
 80013b2:	4b12      	ldr	r3, [pc, #72]	; (80013fc <HAL_RCC_ClockConfig+0x1c4>)
 80013b4:	685b      	ldr	r3, [r3, #4]
 80013b6:	f423 5260 	bic.w	r2, r3, #14336	; 0x3800
 80013ba:	687b      	ldr	r3, [r7, #4]
 80013bc:	691b      	ldr	r3, [r3, #16]
 80013be:	00db      	lsls	r3, r3, #3
 80013c0:	490e      	ldr	r1, [pc, #56]	; (80013fc <HAL_RCC_ClockConfig+0x1c4>)
 80013c2:	4313      	orrs	r3, r2
 80013c4:	604b      	str	r3, [r1, #4]
 80013c6:	f000 f821 	bl	800140c <HAL_RCC_GetSysClockFreq>
 80013ca:	4602      	mov	r2, r0
 80013cc:	4b0b      	ldr	r3, [pc, #44]	; (80013fc <HAL_RCC_ClockConfig+0x1c4>)
 80013ce:	685b      	ldr	r3, [r3, #4]
 80013d0:	091b      	lsrs	r3, r3, #4
 80013d2:	f003 030f 	and.w	r3, r3, #15
 80013d6:	490a      	ldr	r1, [pc, #40]	; (8001400 <HAL_RCC_ClockConfig+0x1c8>)
 80013d8:	5ccb      	ldrb	r3, [r1, r3]
 80013da:	fa22 f303 	lsr.w	r3, r2, r3
 80013de:	4a09      	ldr	r2, [pc, #36]	; (8001404 <HAL_RCC_ClockConfig+0x1cc>)
 80013e0:	6013      	str	r3, [r2, #0]
 80013e2:	4b09      	ldr	r3, [pc, #36]	; (8001408 <HAL_RCC_ClockConfig+0x1d0>)
 80013e4:	681b      	ldr	r3, [r3, #0]
 80013e6:	4618      	mov	r0, r3
 80013e8:	f7ff f8e2 	bl	80005b0 <HAL_InitTick>
 80013ec:	2300      	movs	r3, #0
 80013ee:	4618      	mov	r0, r3
 80013f0:	3710      	adds	r7, #16
 80013f2:	46bd      	mov	sp, r7
 80013f4:	bd80      	pop	{r7, pc}
 80013f6:	bf00      	nop
 80013f8:	40022000 	.word	0x40022000
 80013fc:	40021000 	.word	0x40021000
 8001400:	08002330 	.word	0x08002330
 8001404:	20000004 	.word	0x20000004
 8001408:	20000008 	.word	0x20000008

0800140c <HAL_RCC_GetSysClockFreq>:
 800140c:	b480      	push	{r7}
 800140e:	b087      	sub	sp, #28
 8001410:	af00      	add	r7, sp, #0
 8001412:	2300      	movs	r3, #0
 8001414:	60fb      	str	r3, [r7, #12]
 8001416:	2300      	movs	r3, #0
 8001418:	60bb      	str	r3, [r7, #8]
 800141a:	2300      	movs	r3, #0
 800141c:	617b      	str	r3, [r7, #20]
 800141e:	2300      	movs	r3, #0
 8001420:	607b      	str	r3, [r7, #4]
 8001422:	2300      	movs	r3, #0
 8001424:	613b      	str	r3, [r7, #16]
 8001426:	4b1e      	ldr	r3, [pc, #120]	; (80014a0 <HAL_RCC_GetSysClockFreq+0x94>)
 8001428:	685b      	ldr	r3, [r3, #4]
 800142a:	60fb      	str	r3, [r7, #12]
 800142c:	68fb      	ldr	r3, [r7, #12]
 800142e:	f003 030c 	and.w	r3, r3, #12
 8001432:	2b04      	cmp	r3, #4
 8001434:	d002      	beq.n	800143c <HAL_RCC_GetSysClockFreq+0x30>
 8001436:	2b08      	cmp	r3, #8
 8001438:	d003      	beq.n	8001442 <HAL_RCC_GetSysClockFreq+0x36>
 800143a:	e027      	b.n	800148c <HAL_RCC_GetSysClockFreq+0x80>
 800143c:	4b19      	ldr	r3, [pc, #100]	; (80014a4 <HAL_RCC_GetSysClockFreq+0x98>)
 800143e:	613b      	str	r3, [r7, #16]
 8001440:	e027      	b.n	8001492 <HAL_RCC_GetSysClockFreq+0x86>
 8001442:	68fb      	ldr	r3, [r7, #12]
 8001444:	0c9b      	lsrs	r3, r3, #18
 8001446:	f003 030f 	and.w	r3, r3, #15
 800144a:	4a17      	ldr	r2, [pc, #92]	; (80014a8 <HAL_RCC_GetSysClockFreq+0x9c>)
 800144c:	5cd3      	ldrb	r3, [r2, r3]
 800144e:	607b      	str	r3, [r7, #4]
 8001450:	68fb      	ldr	r3, [r7, #12]
 8001452:	f403 3380 	and.w	r3, r3, #65536	; 0x10000
 8001456:	2b00      	cmp	r3, #0
 8001458:	d010      	beq.n	800147c <HAL_RCC_GetSysClockFreq+0x70>
 800145a:	4b11      	ldr	r3, [pc, #68]	; (80014a0 <HAL_RCC_GetSysClockFreq+0x94>)
 800145c:	685b      	ldr	r3, [r3, #4]
 800145e:	0c5b      	lsrs	r3, r3, #17
 8001460:	f003 0301 	and.w	r3, r3, #1
 8001464:	4a11      	ldr	r2, [pc, #68]	; (80014ac <HAL_RCC_GetSysClockFreq+0xa0>)
 8001466:	5cd3      	ldrb	r3, [r2, r3]
 8001468:	60bb      	str	r3, [r7, #8]
 800146a:	687b      	ldr	r3, [r7, #4]
 800146c:	4a0d      	ldr	r2, [pc, #52]	; (80014a4 <HAL_RCC_GetSysClockFreq+0x98>)
 800146e:	fb03 f202 	mul.w	r2, r3, r2
 8001472:	68bb      	ldr	r3, [r7, #8]
 8001474:	fbb2 f3f3 	udiv	r3, r2, r3
 8001478:	617b      	str	r3, [r7, #20]
 800147a:	e004      	b.n	8001486 <HAL_RCC_GetSysClockFreq+0x7a>
 800147c:	687b      	ldr	r3, [r7, #4]
 800147e:	4a0c      	ldr	r2, [pc, #48]	; (80014b0 <HAL_RCC_GetSysClockFreq+0xa4>)
 8001480:	fb02 f303 	mul.w	r3, r2, r3
 8001484:	617b      	str	r3, [r7, #20]
 8001486:	697b      	ldr	r3, [r7, #20]
 8001488:	613b      	str	r3, [r7, #16]
 800148a:	e002      	b.n	8001492 <HAL_RCC_GetSysClockFreq+0x86>
 800148c:	4b05      	ldr	r3, [pc, #20]	; (80014a4 <HAL_RCC_GetSysClockFreq+0x98>)
 800148e:	613b      	str	r3, [r7, #16]
 8001490:	bf00      	nop
 8001492:	693b      	ldr	r3, [r7, #16]
 8001494:	4618      	mov	r0, r3
 8001496:	371c      	adds	r7, #28
 8001498:	46bd      	mov	sp, r7
 800149a:	bc80      	pop	{r7}
 800149c:	4770      	bx	lr
 800149e:	bf00      	nop
 80014a0:	40021000 	.word	0x40021000
 80014a4:	007a1200 	.word	0x007a1200
 80014a8:	08002348 	.word	0x08002348
 80014ac:	08002358 	.word	0x08002358
 80014b0:	003d0900 	.word	0x003d0900

080014b4 <HAL_RCC_GetHCLKFreq>:
 80014b4:	b480      	push	{r7}
 80014b6:	af00      	add	r7, sp, #0
 80014b8:	4b02      	ldr	r3, [pc, #8]	; (80014c4 <HAL_RCC_GetHCLKFreq+0x10>)
 80014ba:	681b      	ldr	r3, [r3, #0]
 80014bc:	4618      	mov	r0, r3
 80014be:	46bd      	mov	sp, r7
 80014c0:	bc80      	pop	{r7}
 80014c2:	4770      	bx	lr
 80014c4:	20000004 	.word	0x20000004

080014c8 <HAL_RCC_GetPCLK1Freq>:
 80014c8:	b580      	push	{r7, lr}
 80014ca:	af00      	add	r7, sp, #0
 80014cc:	f7ff fff2 	bl	80014b4 <HAL_RCC_GetHCLKFreq>
 80014d0:	4602      	mov	r2, r0
 80014d2:	4b05      	ldr	r3, [pc, #20]	; (80014e8 <HAL_RCC_GetPCLK1Freq+0x20>)
 80014d4:	685b      	ldr	r3, [r3, #4]
 80014d6:	0a1b      	lsrs	r3, r3, #8
 80014d8:	f003 0307 	and.w	r3, r3, #7
 80014dc:	4903      	ldr	r1, [pc, #12]	; (80014ec <HAL_RCC_GetPCLK1Freq+0x24>)
 80014de:	5ccb      	ldrb	r3, [r1, r3]
 80014e0:	fa22 f303 	lsr.w	r3, r2, r3
 80014e4:	4618      	mov	r0, r3
 80014e6:	bd80      	pop	{r7, pc}
 80014e8:	40021000 	.word	0x40021000
 80014ec:	08002340 	.word	0x08002340

080014f0 <HAL_RCC_GetPCLK2Freq>:
 80014f0:	b580      	push	{r7, lr}
 80014f2:	af00      	add	r7, sp, #0
 80014f4:	f7ff ffde 	bl	80014b4 <HAL_RCC_GetHCLKFreq>
 80014f8:	4602      	mov	r2, r0
 80014fa:	4b05      	ldr	r3, [pc, #20]	; (8001510 <HAL_RCC_GetPCLK2Freq+0x20>)
 80014fc:	685b      	ldr	r3, [r3, #4]
 80014fe:	0adb      	lsrs	r3, r3, #11
 8001500:	f003 0307 	and.w	r3, r3, #7
 8001504:	4903      	ldr	r1, [pc, #12]	; (8001514 <HAL_RCC_GetPCLK2Freq+0x24>)
 8001506:	5ccb      	ldrb	r3, [r1, r3]
 8001508:	fa22 f303 	lsr.w	r3, r2, r3
 800150c:	4618      	mov	r0, r3
 800150e:	bd80      	pop	{r7, pc}
 8001510:	40021000 	.word	0x40021000
 8001514:	08002340 	.word	0x08002340

08001518 <RCC_Delay>:
 8001518:	b480      	push	{r7}
 800151a:	b085      	sub	sp, #20
 800151c:	af00      	add	r7, sp, #0
 800151e:	6078      	str	r0, [r7, #4]
 8001520:	4b0a      	ldr	r3, [pc, #40]	; (800154c <RCC_Delay+0x34>)
 8001522:	681b      	ldr	r3, [r3, #0]
 8001524:	4a0a      	ldr	r2, [pc, #40]	; (8001550 <RCC_Delay+0x38>)
 8001526:	fba2 2303 	umull	r2, r3, r2, r3
 800152a:	0a5b      	lsrs	r3, r3, #9
 800152c:	687a      	ldr	r2, [r7, #4]
 800152e:	fb02 f303 	mul.w	r3, r2, r3
 8001532:	60fb      	str	r3, [r7, #12]
 8001534:	bf00      	nop
 8001536:	68fb      	ldr	r3, [r7, #12]
 8001538:	1e5a      	subs	r2, r3, #1
 800153a:	60fa      	str	r2, [r7, #12]
 800153c:	2b00      	cmp	r3, #0
 800153e:	d1f9      	bne.n	8001534 <RCC_Delay+0x1c>
 8001540:	bf00      	nop
 8001542:	bf00      	nop
 8001544:	3714      	adds	r7, #20
 8001546:	46bd      	mov	sp, r7
 8001548:	bc80      	pop	{r7}
 800154a:	4770      	bx	lr
 800154c:	20000004 	.word	0x20000004
 8001550:	10624dd3 	.word	0x10624dd3

08001554 <HAL_UART_Init>:
 8001554:	b580      	push	{r7, lr}
 8001556:	b082      	sub	sp, #8
 8001558:	af00      	add	r7, sp, #0
 800155a:	6078      	str	r0, [r7, #4]
 800155c:	687b      	ldr	r3, [r7, #4]
 800155e:	2b00      	cmp	r3, #0
 8001560:	d101      	bne.n	8001566 <HAL_UART_Init+0x12>
 8001562:	2301      	movs	r3, #1
 8001564:	e042      	b.n	80015ec <HAL_UART_Init+0x98>
 8001566:	687b      	ldr	r3, [r7, #4]
 8001568:	f893 3041 	ldrb.w	r3, [r3, #65]	; 0x41
 800156c:	b2db      	uxtb	r3, r3
 800156e:	2b00      	cmp	r3, #0
 8001570:	d106      	bne.n	8001580 <HAL_UART_Init+0x2c>
 8001572:	687b      	ldr	r3, [r7, #4]
 8001574:	2200      	movs	r2, #0
 8001576:	f883 2040 	strb.w	r2, [r3, #64]	; 0x40
 800157a:	6878      	ldr	r0, [r7, #4]
 800157c:	f7fe ff50 	bl	8000420 <HAL_UART_MspInit>
 8001580:	687b      	ldr	r3, [r7, #4]
 8001582:	2224      	movs	r2, #36	; 0x24
 8001584:	f883 2041 	strb.w	r2, [r3, #65]	; 0x41
 8001588:	687b      	ldr	r3, [r7, #4]
 800158a:	681b      	ldr	r3, [r3, #0]
 800158c:	68da      	ldr	r2, [r3, #12]
 800158e:	687b      	ldr	r3, [r7, #4]
 8001590:	681b      	ldr	r3, [r3, #0]
 8001592:	f422 5200 	bic.w	r2, r2, #8192	; 0x2000
 8001596:	60da      	str	r2, [r3, #12]
 8001598:	6878      	ldr	r0, [r7, #4]
 800159a:	f000 fe03 	bl	80021a4 <UART_SetConfig>
 800159e:	687b      	ldr	r3, [r7, #4]
 80015a0:	681b      	ldr	r3, [r3, #0]
 80015a2:	691a      	ldr	r2, [r3, #16]
 80015a4:	687b      	ldr	r3, [r7, #4]
 80015a6:	681b      	ldr	r3, [r3, #0]
 80015a8:	f422 4290 	bic.w	r2, r2, #18432	; 0x4800
 80015ac:	611a      	str	r2, [r3, #16]
 80015ae:	687b      	ldr	r3, [r7, #4]
 80015b0:	681b      	ldr	r3, [r3, #0]
 80015b2:	695a      	ldr	r2, [r3, #20]
 80015b4:	687b      	ldr	r3, [r7, #4]
 80015b6:	681b      	ldr	r3, [r3, #0]
 80015b8:	f022 022a 	bic.w	r2, r2, #42	; 0x2a
 80015bc:	615a      	str	r2, [r3, #20]
 80015be:	687b      	ldr	r3, [r7, #4]
 80015c0:	681b      	ldr	r3, [r3, #0]
 80015c2:	68da      	ldr	r2, [r3, #12]
 80015c4:	687b      	ldr	r3, [r7, #4]
 80015c6:	681b      	ldr	r3, [r3, #0]
 80015c8:	f442 5200 	orr.w	r2, r2, #8192	; 0x2000
 80015cc:	60da      	str	r2, [r3, #12]
 80015ce:	687b      	ldr	r3, [r7, #4]
 80015d0:	2200      	movs	r2, #0
 80015d2:	645a      	str	r2, [r3, #68]	; 0x44
 80015d4:	687b      	ldr	r3, [r7, #4]
 80015d6:	2220      	movs	r2, #32
 80015d8:	f883 2041 	strb.w	r2, [r3, #65]	; 0x41
 80015dc:	687b      	ldr	r3, [r7, #4]
 80015de:	2220      	movs	r2, #32
 80015e0:	f883 2042 	strb.w	r2, [r3, #66]	; 0x42
 80015e4:	687b      	ldr	r3, [r7, #4]
 80015e6:	2200      	movs	r2, #0
 80015e8:	635a      	str	r2, [r3, #52]	; 0x34
 80015ea:	2300      	movs	r3, #0
 80015ec:	4618      	mov	r0, r3
 80015ee:	3708      	adds	r7, #8
 80015f0:	46bd      	mov	sp, r7
 80015f2:	bd80      	pop	{r7, pc}

080015f4 <HAL_UART_Transmit>:
 80015f4:	b580      	push	{r7, lr}
 80015f6:	b08a      	sub	sp, #40	; 0x28
 80015f8:	af02      	add	r7, sp, #8
 80015fa:	60f8      	str	r0, [r7, #12]
 80015fc:	60b9      	str	r1, [r7, #8]
 80015fe:	603b      	str	r3, [r7, #0]
 8001600:	4613      	mov	r3, r2
 8001602:	80fb      	strh	r3, [r7, #6]
 8001604:	2300      	movs	r3, #0
 8001606:	617b      	str	r3, [r7, #20]
 8001608:	68fb      	ldr	r3, [r7, #12]
 800160a:	f893 3041 	ldrb.w	r3, [r3, #65]	; 0x41
 800160e:	b2db      	uxtb	r3, r3
 8001610:	2b20      	cmp	r3, #32
 8001612:	d16d      	bne.n	80016f0 <HAL_UART_Transmit+0xfc>
 8001614:	68bb      	ldr	r3, [r7, #8]
 8001616:	2b00      	cmp	r3, #0
 8001618:	d002      	beq.n	8001620 <HAL_UART_Transmit+0x2c>
 800161a:	88fb      	ldrh	r3, [r7, #6]
 800161c:	2b00      	cmp	r3, #0
 800161e:	d101      	bne.n	8001624 <HAL_UART_Transmit+0x30>
 8001620:	2301      	movs	r3, #1
 8001622:	e066      	b.n	80016f2 <HAL_UART_Transmit+0xfe>
 8001624:	68fb      	ldr	r3, [r7, #12]
 8001626:	2200      	movs	r2, #0
 8001628:	645a      	str	r2, [r3, #68]	; 0x44
 800162a:	68fb      	ldr	r3, [r7, #12]
 800162c:	2221      	movs	r2, #33	; 0x21
 800162e:	f883 2041 	strb.w	r2, [r3, #65]	; 0x41
 8001632:	f7fe ffff 	bl	8000634 <HAL_GetTick>
 8001636:	6178      	str	r0, [r7, #20]
 8001638:	68fb      	ldr	r3, [r7, #12]
 800163a:	88fa      	ldrh	r2, [r7, #6]
 800163c:	849a      	strh	r2, [r3, #36]	; 0x24
 800163e:	68fb      	ldr	r3, [r7, #12]
 8001640:	88fa      	ldrh	r2, [r7, #6]
 8001642:	84da      	strh	r2, [r3, #38]	; 0x26
 8001644:	68fb      	ldr	r3, [r7, #12]
 8001646:	689b      	ldr	r3, [r3, #8]
 8001648:	f5b3 5f80 	cmp.w	r3, #4096	; 0x1000
 800164c:	d108      	bne.n	8001660 <HAL_UART_Transmit+0x6c>
 800164e:	68fb      	ldr	r3, [r7, #12]
 8001650:	691b      	ldr	r3, [r3, #16]
 8001652:	2b00      	cmp	r3, #0
 8001654:	d104      	bne.n	8001660 <HAL_UART_Transmit+0x6c>
 8001656:	2300      	movs	r3, #0
 8001658:	61fb      	str	r3, [r7, #28]
 800165a:	68bb      	ldr	r3, [r7, #8]
 800165c:	61bb      	str	r3, [r7, #24]
 800165e:	e003      	b.n	8001668 <HAL_UART_Transmit+0x74>
 8001660:	68bb      	ldr	r3, [r7, #8]
 8001662:	61fb      	str	r3, [r7, #28]
 8001664:	2300      	movs	r3, #0
 8001666:	61bb      	str	r3, [r7, #24]
 8001668:	e02a      	b.n	80016c0 <HAL_UART_Transmit+0xcc>
 800166a:	683b      	ldr	r3, [r7, #0]
 800166c:	9300      	str	r3, [sp, #0]
 800166e:	697b      	ldr	r3, [r7, #20]
 8001670:	2200      	movs	r2, #0
 8001672:	2180      	movs	r1, #128	; 0x80
 8001674:	68f8      	ldr	r0, [r7, #12]
 8001676:	f000 fb8b 	bl	8001d90 <UART_WaitOnFlagUntilTimeout>
 800167a:	4603      	mov	r3, r0
 800167c:	2b00      	cmp	r3, #0
 800167e:	d001      	beq.n	8001684 <HAL_UART_Transmit+0x90>
 8001680:	2303      	movs	r3, #3
 8001682:	e036      	b.n	80016f2 <HAL_UART_Transmit+0xfe>
 8001684:	69fb      	ldr	r3, [r7, #28]
 8001686:	2b00      	cmp	r3, #0
 8001688:	d10b      	bne.n	80016a2 <HAL_UART_Transmit+0xae>
 800168a:	69bb      	ldr	r3, [r7, #24]
 800168c:	881b      	ldrh	r3, [r3, #0]
 800168e:	461a      	mov	r2, r3
 8001690:	68fb      	ldr	r3, [r7, #12]
 8001692:	681b      	ldr	r3, [r3, #0]
 8001694:	f3c2 0208 	ubfx	r2, r2, #0, #9
 8001698:	605a      	str	r2, [r3, #4]
 800169a:	69bb      	ldr	r3, [r7, #24]
 800169c:	3302      	adds	r3, #2
 800169e:	61bb      	str	r3, [r7, #24]
 80016a0:	e007      	b.n	80016b2 <HAL_UART_Transmit+0xbe>
 80016a2:	69fb      	ldr	r3, [r7, #28]
 80016a4:	781a      	ldrb	r2, [r3, #0]
 80016a6:	68fb      	ldr	r3, [r7, #12]
 80016a8:	681b      	ldr	r3, [r3, #0]
 80016aa:	605a      	str	r2, [r3, #4]
 80016ac:	69fb      	ldr	r3, [r7, #28]
 80016ae:	3301      	adds	r3, #1
 80016b0:	61fb      	str	r3, [r7, #28]
 80016b2:	68fb      	ldr	r3, [r7, #12]
 80016b4:	8cdb      	ldrh	r3, [r3, #38]	; 0x26
 80016b6:	b29b      	uxth	r3, r3
 80016b8:	3b01      	subs	r3, #1
 80016ba:	b29a      	uxth	r2, r3
 80016bc:	68fb      	ldr	r3, [r7, #12]
 80016be:	84da      	strh	r2, [r3, #38]	; 0x26
 80016c0:	68fb      	ldr	r3, [r7, #12]
 80016c2:	8cdb      	ldrh	r3, [r3, #38]	; 0x26
 80016c4:	b29b      	uxth	r3, r3
 80016c6:	2b00      	cmp	r3, #0
 80016c8:	d1cf      	bne.n	800166a <HAL_UART_Transmit+0x76>
 80016ca:	683b      	ldr	r3, [r7, #0]
 80016cc:	9300      	str	r3, [sp, #0]
 80016ce:	697b      	ldr	r3, [r7, #20]
 80016d0:	2200      	movs	r2, #0
 80016d2:	2140      	movs	r1, #64	; 0x40
 80016d4:	68f8      	ldr	r0, [r7, #12]
 80016d6:	f000 fb5b 	bl	8001d90 <UART_WaitOnFlagUntilTimeout>
 80016da:	4603      	mov	r3, r0
 80016dc:	2b00      	cmp	r3, #0
 80016de:	d001      	beq.n	80016e4 <HAL_UART_Transmit+0xf0>
 80016e0:	2303      	movs	r3, #3
 80016e2:	e006      	b.n	80016f2 <HAL_UART_Transmit+0xfe>
 80016e4:	68fb      	ldr	r3, [r7, #12]
 80016e6:	2220      	movs	r2, #32
 80016e8:	f883 2041 	strb.w	r2, [r3, #65]	; 0x41
 80016ec:	2300      	movs	r3, #0
 80016ee:	e000      	b.n	80016f2 <HAL_UART_Transmit+0xfe>
 80016f0:	2302      	movs	r3, #2
 80016f2:	4618      	mov	r0, r3
 80016f4:	3720      	adds	r7, #32
 80016f6:	46bd      	mov	sp, r7
 80016f8:	bd80      	pop	{r7, pc}

080016fa <HAL_UART_Receive>:
 80016fa:	b580      	push	{r7, lr}
 80016fc:	b08a      	sub	sp, #40	; 0x28
 80016fe:	af02      	add	r7, sp, #8
 8001700:	60f8      	str	r0, [r7, #12]
 8001702:	60b9      	str	r1, [r7, #8]
 8001704:	603b      	str	r3, [r7, #0]
 8001706:	4613      	mov	r3, r2
 8001708:	80fb      	strh	r3, [r7, #6]
 800170a:	2300      	movs	r3, #0
 800170c:	617b      	str	r3, [r7, #20]
 800170e:	68fb      	ldr	r3, [r7, #12]
 8001710:	f893 3042 	ldrb.w	r3, [r3, #66]	; 0x42
 8001714:	b2db      	uxtb	r3, r3
 8001716:	2b20      	cmp	r3, #32
 8001718:	d17c      	bne.n	8001814 <HAL_UART_Receive+0x11a>
 800171a:	68bb      	ldr	r3, [r7, #8]
 800171c:	2b00      	cmp	r3, #0
 800171e:	d002      	beq.n	8001726 <HAL_UART_Receive+0x2c>
 8001720:	88fb      	ldrh	r3, [r7, #6]
 8001722:	2b00      	cmp	r3, #0
 8001724:	d101      	bne.n	800172a <HAL_UART_Receive+0x30>
 8001726:	2301      	movs	r3, #1
 8001728:	e075      	b.n	8001816 <HAL_UART_Receive+0x11c>
 800172a:	68fb      	ldr	r3, [r7, #12]
 800172c:	2200      	movs	r2, #0
 800172e:	645a      	str	r2, [r3, #68]	; 0x44
 8001730:	68fb      	ldr	r3, [r7, #12]
 8001732:	2222      	movs	r2, #34	; 0x22
 8001734:	f883 2042 	strb.w	r2, [r3, #66]	; 0x42
 8001738:	68fb      	ldr	r3, [r7, #12]
 800173a:	2200      	movs	r2, #0
 800173c:	631a      	str	r2, [r3, #48]	; 0x30
 800173e:	f7fe ff79 	bl	8000634 <HAL_GetTick>
 8001742:	6178      	str	r0, [r7, #20]
 8001744:	68fb      	ldr	r3, [r7, #12]
 8001746:	88fa      	ldrh	r2, [r7, #6]
 8001748:	859a      	strh	r2, [r3, #44]	; 0x2c
 800174a:	68fb      	ldr	r3, [r7, #12]
 800174c:	88fa      	ldrh	r2, [r7, #6]
 800174e:	85da      	strh	r2, [r3, #46]	; 0x2e
 8001750:	68fb      	ldr	r3, [r7, #12]
 8001752:	689b      	ldr	r3, [r3, #8]
 8001754:	f5b3 5f80 	cmp.w	r3, #4096	; 0x1000
 8001758:	d108      	bne.n	800176c <HAL_UART_Receive+0x72>
 800175a:	68fb      	ldr	r3, [r7, #12]
 800175c:	691b      	ldr	r3, [r3, #16]
 800175e:	2b00      	cmp	r3, #0
 8001760:	d104      	bne.n	800176c <HAL_UART_Receive+0x72>
 8001762:	2300      	movs	r3, #0
 8001764:	61fb      	str	r3, [r7, #28]
 8001766:	68bb      	ldr	r3, [r7, #8]
 8001768:	61bb      	str	r3, [r7, #24]
 800176a:	e003      	b.n	8001774 <HAL_UART_Receive+0x7a>
 800176c:	68bb      	ldr	r3, [r7, #8]
 800176e:	61fb      	str	r3, [r7, #28]
 8001770:	2300      	movs	r3, #0
 8001772:	61bb      	str	r3, [r7, #24]
 8001774:	e043      	b.n	80017fe <HAL_UART_Receive+0x104>
 8001776:	683b      	ldr	r3, [r7, #0]
 8001778:	9300      	str	r3, [sp, #0]
 800177a:	697b      	ldr	r3, [r7, #20]
 800177c:	2200      	movs	r2, #0
 800177e:	2120      	movs	r1, #32
 8001780:	68f8      	ldr	r0, [r7, #12]
 8001782:	f000 fb05 	bl	8001d90 <UART_WaitOnFlagUntilTimeout>
 8001786:	4603      	mov	r3, r0
 8001788:	2b00      	cmp	r3, #0
 800178a:	d001      	beq.n	8001790 <HAL_UART_Receive+0x96>
 800178c:	2303      	movs	r3, #3
 800178e:	e042      	b.n	8001816 <HAL_UART_Receive+0x11c>
 8001790:	69fb      	ldr	r3, [r7, #28]
 8001792:	2b00      	cmp	r3, #0
 8001794:	d10c      	bne.n	80017b0 <HAL_UART_Receive+0xb6>
 8001796:	68fb      	ldr	r3, [r7, #12]
 8001798:	681b      	ldr	r3, [r3, #0]
 800179a:	685b      	ldr	r3, [r3, #4]
 800179c:	b29b      	uxth	r3, r3
 800179e:	f3c3 0308 	ubfx	r3, r3, #0, #9
 80017a2:	b29a      	uxth	r2, r3
 80017a4:	69bb      	ldr	r3, [r7, #24]
 80017a6:	801a      	strh	r2, [r3, #0]
 80017a8:	69bb      	ldr	r3, [r7, #24]
 80017aa:	3302      	adds	r3, #2
 80017ac:	61bb      	str	r3, [r7, #24]
 80017ae:	e01f      	b.n	80017f0 <HAL_UART_Receive+0xf6>
 80017b0:	68fb      	ldr	r3, [r7, #12]
 80017b2:	689b      	ldr	r3, [r3, #8]
 80017b4:	f5b3 5f80 	cmp.w	r3, #4096	; 0x1000
 80017b8:	d007      	beq.n	80017ca <HAL_UART_Receive+0xd0>
 80017ba:	68fb      	ldr	r3, [r7, #12]
 80017bc:	689b      	ldr	r3, [r3, #8]
 80017be:	2b00      	cmp	r3, #0
 80017c0:	d10a      	bne.n	80017d8 <HAL_UART_Receive+0xde>
 80017c2:	68fb      	ldr	r3, [r7, #12]
 80017c4:	691b      	ldr	r3, [r3, #16]
 80017c6:	2b00      	cmp	r3, #0
 80017c8:	d106      	bne.n	80017d8 <HAL_UART_Receive+0xde>
 80017ca:	68fb      	ldr	r3, [r7, #12]
 80017cc:	681b      	ldr	r3, [r3, #0]
 80017ce:	685b      	ldr	r3, [r3, #4]
 80017d0:	b2da      	uxtb	r2, r3
 80017d2:	69fb      	ldr	r3, [r7, #28]
 80017d4:	701a      	strb	r2, [r3, #0]
 80017d6:	e008      	b.n	80017ea <HAL_UART_Receive+0xf0>
 80017d8:	68fb      	ldr	r3, [r7, #12]
 80017da:	681b      	ldr	r3, [r3, #0]
 80017dc:	685b      	ldr	r3, [r3, #4]
 80017de:	b2db      	uxtb	r3, r3
 80017e0:	f003 037f 	and.w	r3, r3, #127	; 0x7f
 80017e4:	b2da      	uxtb	r2, r3
 80017e6:	69fb      	ldr	r3, [r7, #28]
 80017e8:	701a      	strb	r2, [r3, #0]
 80017ea:	69fb      	ldr	r3, [r7, #28]
 80017ec:	3301      	adds	r3, #1
 80017ee:	61fb      	str	r3, [r7, #28]
 80017f0:	68fb      	ldr	r3, [r7, #12]
 80017f2:	8ddb      	ldrh	r3, [r3, #46]	; 0x2e
 80017f4:	b29b      	uxth	r3, r3
 80017f6:	3b01      	subs	r3, #1
 80017f8:	b29a      	uxth	r2, r3
 80017fa:	68fb      	ldr	r3, [r7, #12]
 80017fc:	85da      	strh	r2, [r3, #46]	; 0x2e
 80017fe:	68fb      	ldr	r3, [r7, #12]
 8001800:	8ddb      	ldrh	r3, [r3, #46]	; 0x2e
 8001802:	b29b      	uxth	r3, r3
 8001804:	2b00      	cmp	r3, #0
 8001806:	d1b6      	bne.n	8001776 <HAL_UART_Receive+0x7c>
 8001808:	68fb      	ldr	r3, [r7, #12]
 800180a:	2220      	movs	r2, #32
 800180c:	f883 2042 	strb.w	r2, [r3, #66]	; 0x42
 8001810:	2300      	movs	r3, #0
 8001812:	e000      	b.n	8001816 <HAL_UART_Receive+0x11c>
 8001814:	2302      	movs	r3, #2
 8001816:	4618      	mov	r0, r3
 8001818:	3720      	adds	r7, #32
 800181a:	46bd      	mov	sp, r7
 800181c:	bd80      	pop	{r7, pc}
	...

08001820 <HAL_UART_IRQHandler>:
 8001820:	b580      	push	{r7, lr}
 8001822:	b0ba      	sub	sp, #232	; 0xe8
 8001824:	af00      	add	r7, sp, #0
 8001826:	6078      	str	r0, [r7, #4]
 8001828:	687b      	ldr	r3, [r7, #4]
 800182a:	681b      	ldr	r3, [r3, #0]
 800182c:	681b      	ldr	r3, [r3, #0]
 800182e:	f8c7 30e4 	str.w	r3, [r7, #228]	; 0xe4
 8001832:	687b      	ldr	r3, [r7, #4]
 8001834:	681b      	ldr	r3, [r3, #0]
 8001836:	68db      	ldr	r3, [r3, #12]
 8001838:	f8c7 30e0 	str.w	r3, [r7, #224]	; 0xe0
 800183c:	687b      	ldr	r3, [r7, #4]
 800183e:	681b      	ldr	r3, [r3, #0]
 8001840:	695b      	ldr	r3, [r3, #20]
 8001842:	f8c7 30dc 	str.w	r3, [r7, #220]	; 0xdc
 8001846:	2300      	movs	r3, #0
 8001848:	f8c7 30d8 	str.w	r3, [r7, #216]	; 0xd8
 800184c:	2300      	movs	r3, #0
 800184e:	f8c7 30d4 	str.w	r3, [r7, #212]	; 0xd4
 8001852:	f8d7 30e4 	ldr.w	r3, [r7, #228]	; 0xe4
 8001856:	f003 030f 	and.w	r3, r3, #15
 800185a:	f8c7 30d8 	str.w	r3, [r7, #216]	; 0xd8
 800185e:	f8d7 30d8 	ldr.w	r3, [r7, #216]	; 0xd8
 8001862:	2b00      	cmp	r3, #0
 8001864:	d10f      	bne.n	8001886 <HAL_UART_IRQHandler+0x66>
 8001866:	f8d7 30e4 	ldr.w	r3, [r7, #228]	; 0xe4
 800186a:	f003 0320 	and.w	r3, r3, #32
 800186e:	2b00      	cmp	r3, #0
 8001870:	d009      	beq.n	8001886 <HAL_UART_IRQHandler+0x66>
 8001872:	f8d7 30e0 	ldr.w	r3, [r7, #224]	; 0xe0
 8001876:	f003 0320 	and.w	r3, r3, #32
 800187a:	2b00      	cmp	r3, #0
 800187c:	d003      	beq.n	8001886 <HAL_UART_IRQHandler+0x66>
 800187e:	6878      	ldr	r0, [r7, #4]
 8001880:	f000 fbd1 	bl	8002026 <UART_Receive_IT>
 8001884:	e25b      	b.n	8001d3e <HAL_UART_IRQHandler+0x51e>
 8001886:	f8d7 30d8 	ldr.w	r3, [r7, #216]	; 0xd8
 800188a:	2b00      	cmp	r3, #0
 800188c:	f000 80de 	beq.w	8001a4c <HAL_UART_IRQHandler+0x22c>
 8001890:	f8d7 30dc 	ldr.w	r3, [r7, #220]	; 0xdc
 8001894:	f003 0301 	and.w	r3, r3, #1
 8001898:	2b00      	cmp	r3, #0
 800189a:	d106      	bne.n	80018aa <HAL_UART_IRQHandler+0x8a>
 800189c:	f8d7 30e0 	ldr.w	r3, [r7, #224]	; 0xe0
 80018a0:	f403 7390 	and.w	r3, r3, #288	; 0x120
 80018a4:	2b00      	cmp	r3, #0
 80018a6:	f000 80d1 	beq.w	8001a4c <HAL_UART_IRQHandler+0x22c>
 80018aa:	f8d7 30e4 	ldr.w	r3, [r7, #228]	; 0xe4
 80018ae:	f003 0301 	and.w	r3, r3, #1
 80018b2:	2b00      	cmp	r3, #0
 80018b4:	d00b      	beq.n	80018ce <HAL_UART_IRQHandler+0xae>
 80018b6:	f8d7 30e0 	ldr.w	r3, [r7, #224]	; 0xe0
 80018ba:	f403 7380 	and.w	r3, r3, #256	; 0x100
 80018be:	2b00      	cmp	r3, #0
 80018c0:	d005      	beq.n	80018ce <HAL_UART_IRQHandler+0xae>
 80018c2:	687b      	ldr	r3, [r7, #4]
 80018c4:	6c5b      	ldr	r3, [r3, #68]	; 0x44
 80018c6:	f043 0201 	orr.w	r2, r3, #1
 80018ca:	687b      	ldr	r3, [r7, #4]
 80018cc:	645a      	str	r2, [r3, #68]	; 0x44
 80018ce:	f8d7 30e4 	ldr.w	r3, [r7, #228]	; 0xe4
 80018d2:	f003 0304 	and.w	r3, r3, #4
 80018d6:	2b00      	cmp	r3, #0
 80018d8:	d00b      	beq.n	80018f2 <HAL_UART_IRQHandler+0xd2>
 80018da:	f8d7 30dc 	ldr.w	r3, [r7, #220]	; 0xdc
 80018de:	f003 0301 	and.w	r3, r3, #1
 80018e2:	2b00      	cmp	r3, #0
 80018e4:	d005      	beq.n	80018f2 <HAL_UART_IRQHandler+0xd2>
 80018e6:	687b      	ldr	r3, [r7, #4]
 80018e8:	6c5b      	ldr	r3, [r3, #68]	; 0x44
 80018ea:	f043 0202 	orr.w	r2, r3, #2
 80018ee:	687b      	ldr	r3, [r7, #4]
 80018f0:	645a      	str	r2, [r3, #68]	; 0x44
 80018f2:	f8d7 30e4 	ldr.w	r3, [r7, #228]	; 0xe4
 80018f6:	f003 0302 	and.w	r3, r3, #2
 80018fa:	2b00      	cmp	r3, #0
 80018fc:	d00b      	beq.n	8001916 <HAL_UART_IRQHandler+0xf6>
 80018fe:	f8d7 30dc 	ldr.w	r3, [r7, #220]	; 0xdc
 8001902:	f003 0301 	and.w	r3, r3, #1
 8001906:	2b00      	cmp	r3, #0
 8001908:	d005      	beq.n	8001916 <HAL_UART_IRQHandler+0xf6>
 800190a:	687b      	ldr	r3, [r7, #4]
 800190c:	6c5b      	ldr	r3, [r3, #68]	; 0x44
 800190e:	f043 0204 	orr.w	r2, r3, #4
 8001912:	687b      	ldr	r3, [r7, #4]
 8001914:	645a      	str	r2, [r3, #68]	; 0x44
 8001916:	f8d7 30e4 	ldr.w	r3, [r7, #228]	; 0xe4
 800191a:	f003 0308 	and.w	r3, r3, #8
 800191e:	2b00      	cmp	r3, #0
 8001920:	d011      	beq.n	8001946 <HAL_UART_IRQHandler+0x126>
 8001922:	f8d7 30e0 	ldr.w	r3, [r7, #224]	; 0xe0
 8001926:	f003 0320 	and.w	r3, r3, #32
 800192a:	2b00      	cmp	r3, #0
 800192c:	d105      	bne.n	800193a <HAL_UART_IRQHandler+0x11a>
 800192e:	f8d7 30dc 	ldr.w	r3, [r7, #220]	; 0xdc
 8001932:	f003 0301 	and.w	r3, r3, #1
 8001936:	2b00      	cmp	r3, #0
 8001938:	d005      	beq.n	8001946 <HAL_UART_IRQHandler+0x126>
 800193a:	687b      	ldr	r3, [r7, #4]
 800193c:	6c5b      	ldr	r3, [r3, #68]	; 0x44
 800193e:	f043 0208 	orr.w	r2, r3, #8
 8001942:	687b      	ldr	r3, [r7, #4]
 8001944:	645a      	str	r2, [r3, #68]	; 0x44
 8001946:	687b      	ldr	r3, [r7, #4]
 8001948:	6c5b      	ldr	r3, [r3, #68]	; 0x44
 800194a:	2b00      	cmp	r3, #0
 800194c:	f000 81f2 	beq.w	8001d34 <HAL_UART_IRQHandler+0x514>
 8001950:	f8d7 30e4 	ldr.w	r3, [r7, #228]	; 0xe4
 8001954:	f003 0320 	and.w	r3, r3, #32
 8001958:	2b00      	cmp	r3, #0
 800195a:	d008      	beq.n	800196e <HAL_UART_IRQHandler+0x14e>
 800195c:	f8d7 30e0 	ldr.w	r3, [r7, #224]	; 0xe0
 8001960:	f003 0320 	and.w	r3, r3, #32
 8001964:	2b00      	cmp	r3, #0
 8001966:	d002      	beq.n	800196e <HAL_UART_IRQHandler+0x14e>
 8001968:	6878      	ldr	r0, [r7, #4]
 800196a:	f000 fb5c 	bl	8002026 <UART_Receive_IT>
 800196e:	687b      	ldr	r3, [r7, #4]
 8001970:	681b      	ldr	r3, [r3, #0]
 8001972:	695b      	ldr	r3, [r3, #20]
 8001974:	f003 0340 	and.w	r3, r3, #64	; 0x40
 8001978:	2b00      	cmp	r3, #0
 800197a:	bf14      	ite	ne
 800197c:	2301      	movne	r3, #1
 800197e:	2300      	moveq	r3, #0
 8001980:	b2db      	uxtb	r3, r3
 8001982:	f8c7 30d4 	str.w	r3, [r7, #212]	; 0xd4
 8001986:	687b      	ldr	r3, [r7, #4]
 8001988:	6c5b      	ldr	r3, [r3, #68]	; 0x44
 800198a:	f003 0308 	and.w	r3, r3, #8
 800198e:	2b00      	cmp	r3, #0
 8001990:	d103      	bne.n	800199a <HAL_UART_IRQHandler+0x17a>
 8001992:	f8d7 30d4 	ldr.w	r3, [r7, #212]	; 0xd4
 8001996:	2b00      	cmp	r3, #0
 8001998:	d04f      	beq.n	8001a3a <HAL_UART_IRQHandler+0x21a>
 800199a:	6878      	ldr	r0, [r7, #4]
 800199c:	f000 fa66 	bl	8001e6c <UART_EndRxTransfer>
 80019a0:	687b      	ldr	r3, [r7, #4]
 80019a2:	681b      	ldr	r3, [r3, #0]
 80019a4:	695b      	ldr	r3, [r3, #20]
 80019a6:	f003 0340 	and.w	r3, r3, #64	; 0x40
 80019aa:	2b00      	cmp	r3, #0
 80019ac:	d041      	beq.n	8001a32 <HAL_UART_IRQHandler+0x212>
 80019ae:	687b      	ldr	r3, [r7, #4]
 80019b0:	681b      	ldr	r3, [r3, #0]
 80019b2:	3314      	adds	r3, #20
 80019b4:	f8c7 309c 	str.w	r3, [r7, #156]	; 0x9c
 80019b8:	f8d7 309c 	ldr.w	r3, [r7, #156]	; 0x9c
 80019bc:	e853 3f00 	ldrex	r3, [r3]
 80019c0:	f8c7 3098 	str.w	r3, [r7, #152]	; 0x98
 80019c4:	f8d7 3098 	ldr.w	r3, [r7, #152]	; 0x98
 80019c8:	f023 0340 	bic.w	r3, r3, #64	; 0x40
 80019cc:	f8c7 30d0 	str.w	r3, [r7, #208]	; 0xd0
 80019d0:	687b      	ldr	r3, [r7, #4]
 80019d2:	681b      	ldr	r3, [r3, #0]
 80019d4:	3314      	adds	r3, #20
 80019d6:	f8d7 20d0 	ldr.w	r2, [r7, #208]	; 0xd0
 80019da:	f8c7 20a8 	str.w	r2, [r7, #168]	; 0xa8
 80019de:	f8c7 30a4 	str.w	r3, [r7, #164]	; 0xa4
 80019e2:	f8d7 10a4 	ldr.w	r1, [r7, #164]	; 0xa4
 80019e6:	f8d7 20a8 	ldr.w	r2, [r7, #168]	; 0xa8
 80019ea:	e841 2300 	strex	r3, r2, [r1]
 80019ee:	f8c7 30a0 	str.w	r3, [r7, #160]	; 0xa0
 80019f2:	f8d7 30a0 	ldr.w	r3, [r7, #160]	; 0xa0
 80019f6:	2b00      	cmp	r3, #0
 80019f8:	d1d9      	bne.n	80019ae <HAL_UART_IRQHandler+0x18e>
 80019fa:	687b      	ldr	r3, [r7, #4]
 80019fc:	6bdb      	ldr	r3, [r3, #60]	; 0x3c
 80019fe:	2b00      	cmp	r3, #0
 8001a00:	d013      	beq.n	8001a2a <HAL_UART_IRQHandler+0x20a>
 8001a02:	687b      	ldr	r3, [r7, #4]
 8001a04:	6bdb      	ldr	r3, [r3, #60]	; 0x3c
 8001a06:	4a7e      	ldr	r2, [pc, #504]	; (8001c00 <HAL_UART_IRQHandler+0x3e0>)
 8001a08:	635a      	str	r2, [r3, #52]	; 0x34
 8001a0a:	687b      	ldr	r3, [r7, #4]
 8001a0c:	6bdb      	ldr	r3, [r3, #60]	; 0x3c
 8001a0e:	4618      	mov	r0, r3
 8001a10:	f7fe ff62 	bl	80008d8 <HAL_DMA_Abort_IT>
 8001a14:	4603      	mov	r3, r0
 8001a16:	2b00      	cmp	r3, #0
 8001a18:	d016      	beq.n	8001a48 <HAL_UART_IRQHandler+0x228>
 8001a1a:	687b      	ldr	r3, [r7, #4]
 8001a1c:	6bdb      	ldr	r3, [r3, #60]	; 0x3c
 8001a1e:	6b5b      	ldr	r3, [r3, #52]	; 0x34
 8001a20:	687a      	ldr	r2, [r7, #4]
 8001a22:	6bd2      	ldr	r2, [r2, #60]	; 0x3c
 8001a24:	4610      	mov	r0, r2
 8001a26:	4798      	blx	r3
 8001a28:	e00e      	b.n	8001a48 <HAL_UART_IRQHandler+0x228>
 8001a2a:	6878      	ldr	r0, [r7, #4]
 8001a2c:	f000 f99c 	bl	8001d68 <HAL_UART_ErrorCallback>
 8001a30:	e00a      	b.n	8001a48 <HAL_UART_IRQHandler+0x228>
 8001a32:	6878      	ldr	r0, [r7, #4]
 8001a34:	f000 f998 	bl	8001d68 <HAL_UART_ErrorCallback>
 8001a38:	e006      	b.n	8001a48 <HAL_UART_IRQHandler+0x228>
 8001a3a:	6878      	ldr	r0, [r7, #4]
 8001a3c:	f000 f994 	bl	8001d68 <HAL_UART_ErrorCallback>
 8001a40:	687b      	ldr	r3, [r7, #4]
 8001a42:	2200      	movs	r2, #0
 8001a44:	645a      	str	r2, [r3, #68]	; 0x44
 8001a46:	e175      	b.n	8001d34 <HAL_UART_IRQHandler+0x514>
 8001a48:	bf00      	nop
 8001a4a:	e173      	b.n	8001d34 <HAL_UART_IRQHandler+0x514>
 8001a4c:	687b      	ldr	r3, [r7, #4]
 8001a4e:	6b1b      	ldr	r3, [r3, #48]	; 0x30
 8001a50:	2b01      	cmp	r3, #1
 8001a52:	f040 814f 	bne.w	8001cf4 <HAL_UART_IRQHandler+0x4d4>
 8001a56:	f8d7 30e4 	ldr.w	r3, [r7, #228]	; 0xe4
 8001a5a:	f003 0310 	and.w	r3, r3, #16
 8001a5e:	2b00      	cmp	r3, #0
 8001a60:	f000 8148 	beq.w	8001cf4 <HAL_UART_IRQHandler+0x4d4>
 8001a64:	f8d7 30e0 	ldr.w	r3, [r7, #224]	; 0xe0
 8001a68:	f003 0310 	and.w	r3, r3, #16
 8001a6c:	2b00      	cmp	r3, #0
 8001a6e:	f000 8141 	beq.w	8001cf4 <HAL_UART_IRQHandler+0x4d4>
 8001a72:	2300      	movs	r3, #0
 8001a74:	60bb      	str	r3, [r7, #8]
 8001a76:	687b      	ldr	r3, [r7, #4]
 8001a78:	681b      	ldr	r3, [r3, #0]
 8001a7a:	681b      	ldr	r3, [r3, #0]
 8001a7c:	60bb      	str	r3, [r7, #8]
 8001a7e:	687b      	ldr	r3, [r7, #4]
 8001a80:	681b      	ldr	r3, [r3, #0]
 8001a82:	685b      	ldr	r3, [r3, #4]
 8001a84:	60bb      	str	r3, [r7, #8]
 8001a86:	68bb      	ldr	r3, [r7, #8]
 8001a88:	687b      	ldr	r3, [r7, #4]
 8001a8a:	681b      	ldr	r3, [r3, #0]
 8001a8c:	695b      	ldr	r3, [r3, #20]
 8001a8e:	f003 0340 	and.w	r3, r3, #64	; 0x40
 8001a92:	2b00      	cmp	r3, #0
 8001a94:	f000 80b6 	beq.w	8001c04 <HAL_UART_IRQHandler+0x3e4>
 8001a98:	687b      	ldr	r3, [r7, #4]
 8001a9a:	6bdb      	ldr	r3, [r3, #60]	; 0x3c
 8001a9c:	681b      	ldr	r3, [r3, #0]
 8001a9e:	685b      	ldr	r3, [r3, #4]
 8001aa0:	f8a7 30be 	strh.w	r3, [r7, #190]	; 0xbe
 8001aa4:	f8b7 30be 	ldrh.w	r3, [r7, #190]	; 0xbe
 8001aa8:	2b00      	cmp	r3, #0
 8001aaa:	f000 8145 	beq.w	8001d38 <HAL_UART_IRQHandler+0x518>
 8001aae:	687b      	ldr	r3, [r7, #4]
 8001ab0:	8d9b      	ldrh	r3, [r3, #44]	; 0x2c
 8001ab2:	f8b7 20be 	ldrh.w	r2, [r7, #190]	; 0xbe
 8001ab6:	429a      	cmp	r2, r3
 8001ab8:	f080 813e 	bcs.w	8001d38 <HAL_UART_IRQHandler+0x518>
 8001abc:	687b      	ldr	r3, [r7, #4]
 8001abe:	f8b7 20be 	ldrh.w	r2, [r7, #190]	; 0xbe
 8001ac2:	85da      	strh	r2, [r3, #46]	; 0x2e
 8001ac4:	687b      	ldr	r3, [r7, #4]
 8001ac6:	6bdb      	ldr	r3, [r3, #60]	; 0x3c
 8001ac8:	699b      	ldr	r3, [r3, #24]
 8001aca:	2b20      	cmp	r3, #32
 8001acc:	f000 8088 	beq.w	8001be0 <HAL_UART_IRQHandler+0x3c0>
 8001ad0:	687b      	ldr	r3, [r7, #4]
 8001ad2:	681b      	ldr	r3, [r3, #0]
 8001ad4:	330c      	adds	r3, #12
 8001ad6:	f8c7 3088 	str.w	r3, [r7, #136]	; 0x88
 8001ada:	f8d7 3088 	ldr.w	r3, [r7, #136]	; 0x88
 8001ade:	e853 3f00 	ldrex	r3, [r3]
 8001ae2:	f8c7 3084 	str.w	r3, [r7, #132]	; 0x84
 8001ae6:	f8d7 3084 	ldr.w	r3, [r7, #132]	; 0x84
 8001aea:	f423 7380 	bic.w	r3, r3, #256	; 0x100
 8001aee:	f8c7 30b8 	str.w	r3, [r7, #184]	; 0xb8
 8001af2:	687b      	ldr	r3, [r7, #4]
 8001af4:	681b      	ldr	r3, [r3, #0]
 8001af6:	330c      	adds	r3, #12
 8001af8:	f8d7 20b8 	ldr.w	r2, [r7, #184]	; 0xb8
 8001afc:	f8c7 2094 	str.w	r2, [r7, #148]	; 0x94
 8001b00:	f8c7 3090 	str.w	r3, [r7, #144]	; 0x90
 8001b04:	f8d7 1090 	ldr.w	r1, [r7, #144]	; 0x90
 8001b08:	f8d7 2094 	ldr.w	r2, [r7, #148]	; 0x94
 8001b0c:	e841 2300 	strex	r3, r2, [r1]
 8001b10:	f8c7 308c 	str.w	r3, [r7, #140]	; 0x8c
 8001b14:	f8d7 308c 	ldr.w	r3, [r7, #140]	; 0x8c
 8001b18:	2b00      	cmp	r3, #0
 8001b1a:	d1d9      	bne.n	8001ad0 <HAL_UART_IRQHandler+0x2b0>
 8001b1c:	687b      	ldr	r3, [r7, #4]
 8001b1e:	681b      	ldr	r3, [r3, #0]
 8001b20:	3314      	adds	r3, #20
 8001b22:	677b      	str	r3, [r7, #116]	; 0x74
 8001b24:	6f7b      	ldr	r3, [r7, #116]	; 0x74
 8001b26:	e853 3f00 	ldrex	r3, [r3]
 8001b2a:	673b      	str	r3, [r7, #112]	; 0x70
 8001b2c:	6f3b      	ldr	r3, [r7, #112]	; 0x70
 8001b2e:	f023 0301 	bic.w	r3, r3, #1
 8001b32:	f8c7 30b4 	str.w	r3, [r7, #180]	; 0xb4
 8001b36:	687b      	ldr	r3, [r7, #4]
 8001b38:	681b      	ldr	r3, [r3, #0]
 8001b3a:	3314      	adds	r3, #20
 8001b3c:	f8d7 20b4 	ldr.w	r2, [r7, #180]	; 0xb4
 8001b40:	f8c7 2080 	str.w	r2, [r7, #128]	; 0x80
 8001b44:	67fb      	str	r3, [r7, #124]	; 0x7c
 8001b46:	6ff9      	ldr	r1, [r7, #124]	; 0x7c
 8001b48:	f8d7 2080 	ldr.w	r2, [r7, #128]	; 0x80
 8001b4c:	e841 2300 	strex	r3, r2, [r1]
 8001b50:	67bb      	str	r3, [r7, #120]	; 0x78
 8001b52:	6fbb      	ldr	r3, [r7, #120]	; 0x78
 8001b54:	2b00      	cmp	r3, #0
 8001b56:	d1e1      	bne.n	8001b1c <HAL_UART_IRQHandler+0x2fc>
 8001b58:	687b      	ldr	r3, [r7, #4]
 8001b5a:	681b      	ldr	r3, [r3, #0]
 8001b5c:	3314      	adds	r3, #20
 8001b5e:	663b      	str	r3, [r7, #96]	; 0x60
 8001b60:	6e3b      	ldr	r3, [r7, #96]	; 0x60
 8001b62:	e853 3f00 	ldrex	r3, [r3]
 8001b66:	65fb      	str	r3, [r7, #92]	; 0x5c
 8001b68:	6dfb      	ldr	r3, [r7, #92]	; 0x5c
 8001b6a:	f023 0340 	bic.w	r3, r3, #64	; 0x40
 8001b6e:	f8c7 30b0 	str.w	r3, [r7, #176]	; 0xb0
 8001b72:	687b      	ldr	r3, [r7, #4]
 8001b74:	681b      	ldr	r3, [r3, #0]
 8001b76:	3314      	adds	r3, #20
 8001b78:	f8d7 20b0 	ldr.w	r2, [r7, #176]	; 0xb0
 8001b7c:	66fa      	str	r2, [r7, #108]	; 0x6c
 8001b7e:	66bb      	str	r3, [r7, #104]	; 0x68
 8001b80:	6eb9      	ldr	r1, [r7, #104]	; 0x68
 8001b82:	6efa      	ldr	r2, [r7, #108]	; 0x6c
 8001b84:	e841 2300 	strex	r3, r2, [r1]
 8001b88:	667b      	str	r3, [r7, #100]	; 0x64
 8001b8a:	6e7b      	ldr	r3, [r7, #100]	; 0x64
 8001b8c:	2b00      	cmp	r3, #0
 8001b8e:	d1e3      	bne.n	8001b58 <HAL_UART_IRQHandler+0x338>
 8001b90:	687b      	ldr	r3, [r7, #4]
 8001b92:	2220      	movs	r2, #32
 8001b94:	f883 2042 	strb.w	r2, [r3, #66]	; 0x42
 8001b98:	687b      	ldr	r3, [r7, #4]
 8001b9a:	2200      	movs	r2, #0
 8001b9c:	631a      	str	r2, [r3, #48]	; 0x30
 8001b9e:	687b      	ldr	r3, [r7, #4]
 8001ba0:	681b      	ldr	r3, [r3, #0]
 8001ba2:	330c      	adds	r3, #12
 8001ba4:	64fb      	str	r3, [r7, #76]	; 0x4c
 8001ba6:	6cfb      	ldr	r3, [r7, #76]	; 0x4c
 8001ba8:	e853 3f00 	ldrex	r3, [r3]
 8001bac:	64bb      	str	r3, [r7, #72]	; 0x48
 8001bae:	6cbb      	ldr	r3, [r7, #72]	; 0x48
 8001bb0:	f023 0310 	bic.w	r3, r3, #16
 8001bb4:	f8c7 30ac 	str.w	r3, [r7, #172]	; 0xac
 8001bb8:	687b      	ldr	r3, [r7, #4]
 8001bba:	681b      	ldr	r3, [r3, #0]
 8001bbc:	330c      	adds	r3, #12
 8001bbe:	f8d7 20ac 	ldr.w	r2, [r7, #172]	; 0xac
 8001bc2:	65ba      	str	r2, [r7, #88]	; 0x58
 8001bc4:	657b      	str	r3, [r7, #84]	; 0x54
 8001bc6:	6d79      	ldr	r1, [r7, #84]	; 0x54
 8001bc8:	6dba      	ldr	r2, [r7, #88]	; 0x58
 8001bca:	e841 2300 	strex	r3, r2, [r1]
 8001bce:	653b      	str	r3, [r7, #80]	; 0x50
 8001bd0:	6d3b      	ldr	r3, [r7, #80]	; 0x50
 8001bd2:	2b00      	cmp	r3, #0
 8001bd4:	d1e3      	bne.n	8001b9e <HAL_UART_IRQHandler+0x37e>
 8001bd6:	687b      	ldr	r3, [r7, #4]
 8001bd8:	6bdb      	ldr	r3, [r3, #60]	; 0x3c
 8001bda:	4618      	mov	r0, r3
 8001bdc:	f7fe fe41 	bl	8000862 <HAL_DMA_Abort>
 8001be0:	687b      	ldr	r3, [r7, #4]
 8001be2:	2202      	movs	r2, #2
 8001be4:	635a      	str	r2, [r3, #52]	; 0x34
 8001be6:	687b      	ldr	r3, [r7, #4]
 8001be8:	8d9a      	ldrh	r2, [r3, #44]	; 0x2c
 8001bea:	687b      	ldr	r3, [r7, #4]
 8001bec:	8ddb      	ldrh	r3, [r3, #46]	; 0x2e
 8001bee:	b29b      	uxth	r3, r3
 8001bf0:	1ad3      	subs	r3, r2, r3
 8001bf2:	b29b      	uxth	r3, r3
 8001bf4:	4619      	mov	r1, r3
 8001bf6:	6878      	ldr	r0, [r7, #4]
 8001bf8:	f000 f8bf 	bl	8001d7a <HAL_UARTEx_RxEventCallback>
 8001bfc:	e09c      	b.n	8001d38 <HAL_UART_IRQHandler+0x518>
 8001bfe:	bf00      	nop
 8001c00:	08001f31 	.word	0x08001f31
 8001c04:	687b      	ldr	r3, [r7, #4]
 8001c06:	8d9a      	ldrh	r2, [r3, #44]	; 0x2c
 8001c08:	687b      	ldr	r3, [r7, #4]
 8001c0a:	8ddb      	ldrh	r3, [r3, #46]	; 0x2e
 8001c0c:	b29b      	uxth	r3, r3
 8001c0e:	1ad3      	subs	r3, r2, r3
 8001c10:	f8a7 30ce 	strh.w	r3, [r7, #206]	; 0xce
 8001c14:	687b      	ldr	r3, [r7, #4]
 8001c16:	8ddb      	ldrh	r3, [r3, #46]	; 0x2e
 8001c18:	b29b      	uxth	r3, r3
 8001c1a:	2b00      	cmp	r3, #0
 8001c1c:	f000 808e 	beq.w	8001d3c <HAL_UART_IRQHandler+0x51c>
 8001c20:	f8b7 30ce 	ldrh.w	r3, [r7, #206]	; 0xce
 8001c24:	2b00      	cmp	r3, #0
 8001c26:	f000 8089 	beq.w	8001d3c <HAL_UART_IRQHandler+0x51c>
 8001c2a:	687b      	ldr	r3, [r7, #4]
 8001c2c:	681b      	ldr	r3, [r3, #0]
 8001c2e:	330c      	adds	r3, #12
 8001c30:	63bb      	str	r3, [r7, #56]	; 0x38
 8001c32:	6bbb      	ldr	r3, [r7, #56]	; 0x38
 8001c34:	e853 3f00 	ldrex	r3, [r3]
 8001c38:	637b      	str	r3, [r7, #52]	; 0x34
 8001c3a:	6b7b      	ldr	r3, [r7, #52]	; 0x34
 8001c3c:	f423 7390 	bic.w	r3, r3, #288	; 0x120
 8001c40:	f8c7 30c8 	str.w	r3, [r7, #200]	; 0xc8
 8001c44:	687b      	ldr	r3, [r7, #4]
 8001c46:	681b      	ldr	r3, [r3, #0]
 8001c48:	330c      	adds	r3, #12
 8001c4a:	f8d7 20c8 	ldr.w	r2, [r7, #200]	; 0xc8
 8001c4e:	647a      	str	r2, [r7, #68]	; 0x44
 8001c50:	643b      	str	r3, [r7, #64]	; 0x40
 8001c52:	6c39      	ldr	r1, [r7, #64]	; 0x40
 8001c54:	6c7a      	ldr	r2, [r7, #68]	; 0x44
 8001c56:	e841 2300 	strex	r3, r2, [r1]
 8001c5a:	63fb      	str	r3, [r7, #60]	; 0x3c
 8001c5c:	6bfb      	ldr	r3, [r7, #60]	; 0x3c
 8001c5e:	2b00      	cmp	r3, #0
 8001c60:	d1e3      	bne.n	8001c2a <HAL_UART_IRQHandler+0x40a>
 8001c62:	687b      	ldr	r3, [r7, #4]
 8001c64:	681b      	ldr	r3, [r3, #0]
 8001c66:	3314      	adds	r3, #20
 8001c68:	627b      	str	r3, [r7, #36]	; 0x24
 8001c6a:	6a7b      	ldr	r3, [r7, #36]	; 0x24
 8001c6c:	e853 3f00 	ldrex	r3, [r3]
 8001c70:	623b      	str	r3, [r7, #32]
 8001c72:	6a3b      	ldr	r3, [r7, #32]
 8001c74:	f023 0301 	bic.w	r3, r3, #1
 8001c78:	f8c7 30c4 	str.w	r3, [r7, #196]	; 0xc4
 8001c7c:	687b      	ldr	r3, [r7, #4]
 8001c7e:	681b      	ldr	r3, [r3, #0]
 8001c80:	3314      	adds	r3, #20
 8001c82:	f8d7 20c4 	ldr.w	r2, [r7, #196]	; 0xc4
 8001c86:	633a      	str	r2, [r7, #48]	; 0x30
 8001c88:	62fb      	str	r3, [r7, #44]	; 0x2c
 8001c8a:	6af9      	ldr	r1, [r7, #44]	; 0x2c
 8001c8c:	6b3a      	ldr	r2, [r7, #48]	; 0x30
 8001c8e:	e841 2300 	strex	r3, r2, [r1]
 8001c92:	62bb      	str	r3, [r7, #40]	; 0x28
 8001c94:	6abb      	ldr	r3, [r7, #40]	; 0x28
 8001c96:	2b00      	cmp	r3, #0
 8001c98:	d1e3      	bne.n	8001c62 <HAL_UART_IRQHandler+0x442>
 8001c9a:	687b      	ldr	r3, [r7, #4]
 8001c9c:	2220      	movs	r2, #32
 8001c9e:	f883 2042 	strb.w	r2, [r3, #66]	; 0x42
 8001ca2:	687b      	ldr	r3, [r7, #4]
 8001ca4:	2200      	movs	r2, #0
 8001ca6:	631a      	str	r2, [r3, #48]	; 0x30
 8001ca8:	687b      	ldr	r3, [r7, #4]
 8001caa:	681b      	ldr	r3, [r3, #0]
 8001cac:	330c      	adds	r3, #12
 8001cae:	613b      	str	r3, [r7, #16]
 8001cb0:	693b      	ldr	r3, [r7, #16]
 8001cb2:	e853 3f00 	ldrex	r3, [r3]
 8001cb6:	60fb      	str	r3, [r7, #12]
 8001cb8:	68fb      	ldr	r3, [r7, #12]
 8001cba:	f023 0310 	bic.w	r3, r3, #16
 8001cbe:	f8c7 30c0 	str.w	r3, [r7, #192]	; 0xc0
 8001cc2:	687b      	ldr	r3, [r7, #4]
 8001cc4:	681b      	ldr	r3, [r3, #0]
 8001cc6:	330c      	adds	r3, #12
 8001cc8:	f8d7 20c0 	ldr.w	r2, [r7, #192]	; 0xc0
 8001ccc:	61fa      	str	r2, [r7, #28]
 8001cce:	61bb      	str	r3, [r7, #24]
 8001cd0:	69b9      	ldr	r1, [r7, #24]
 8001cd2:	69fa      	ldr	r2, [r7, #28]
 8001cd4:	e841 2300 	strex	r3, r2, [r1]
 8001cd8:	617b      	str	r3, [r7, #20]
 8001cda:	697b      	ldr	r3, [r7, #20]
 8001cdc:	2b00      	cmp	r3, #0
 8001cde:	d1e3      	bne.n	8001ca8 <HAL_UART_IRQHandler+0x488>
 8001ce0:	687b      	ldr	r3, [r7, #4]
 8001ce2:	2202      	movs	r2, #2
 8001ce4:	635a      	str	r2, [r3, #52]	; 0x34
 8001ce6:	f8b7 30ce 	ldrh.w	r3, [r7, #206]	; 0xce
 8001cea:	4619      	mov	r1, r3
 8001cec:	6878      	ldr	r0, [r7, #4]
 8001cee:	f000 f844 	bl	8001d7a <HAL_UARTEx_RxEventCallback>
 8001cf2:	e023      	b.n	8001d3c <HAL_UART_IRQHandler+0x51c>
 8001cf4:	f8d7 30e4 	ldr.w	r3, [r7, #228]	; 0xe4
 8001cf8:	f003 0380 	and.w	r3, r3, #128	; 0x80
 8001cfc:	2b00      	cmp	r3, #0
 8001cfe:	d009      	beq.n	8001d14 <HAL_UART_IRQHandler+0x4f4>
 8001d00:	f8d7 30e0 	ldr.w	r3, [r7, #224]	; 0xe0
 8001d04:	f003 0380 	and.w	r3, r3, #128	; 0x80
 8001d08:	2b00      	cmp	r3, #0
 8001d0a:	d003      	beq.n	8001d14 <HAL_UART_IRQHandler+0x4f4>
 8001d0c:	6878      	ldr	r0, [r7, #4]
 8001d0e:	f000 f923 	bl	8001f58 <UART_Transmit_IT>
 8001d12:	e014      	b.n	8001d3e <HAL_UART_IRQHandler+0x51e>
 8001d14:	f8d7 30e4 	ldr.w	r3, [r7, #228]	; 0xe4
 8001d18:	f003 0340 	and.w	r3, r3, #64	; 0x40
 8001d1c:	2b00      	cmp	r3, #0
 8001d1e:	d00e      	beq.n	8001d3e <HAL_UART_IRQHandler+0x51e>
 8001d20:	f8d7 30e0 	ldr.w	r3, [r7, #224]	; 0xe0
 8001d24:	f003 0340 	and.w	r3, r3, #64	; 0x40
 8001d28:	2b00      	cmp	r3, #0
 8001d2a:	d008      	beq.n	8001d3e <HAL_UART_IRQHandler+0x51e>
 8001d2c:	6878      	ldr	r0, [r7, #4]
 8001d2e:	f000 f962 	bl	8001ff6 <UART_EndTransmit_IT>
 8001d32:	e004      	b.n	8001d3e <HAL_UART_IRQHandler+0x51e>
 8001d34:	bf00      	nop
 8001d36:	e002      	b.n	8001d3e <HAL_UART_IRQHandler+0x51e>
 8001d38:	bf00      	nop
 8001d3a:	e000      	b.n	8001d3e <HAL_UART_IRQHandler+0x51e>
 8001d3c:	bf00      	nop
 8001d3e:	37e8      	adds	r7, #232	; 0xe8
 8001d40:	46bd      	mov	sp, r7
 8001d42:	bd80      	pop	{r7, pc}

08001d44 <HAL_UART_TxCpltCallback>:
 8001d44:	b480      	push	{r7}
 8001d46:	b083      	sub	sp, #12
 8001d48:	af00      	add	r7, sp, #0
 8001d4a:	6078      	str	r0, [r7, #4]
 8001d4c:	bf00      	nop
 8001d4e:	370c      	adds	r7, #12
 8001d50:	46bd      	mov	sp, r7
 8001d52:	bc80      	pop	{r7}
 8001d54:	4770      	bx	lr

08001d56 <HAL_UART_RxCpltCallback>:
 8001d56:	b480      	push	{r7}
 8001d58:	b083      	sub	sp, #12
 8001d5a:	af00      	add	r7, sp, #0
 8001d5c:	6078      	str	r0, [r7, #4]
 8001d5e:	bf00      	nop
 8001d60:	370c      	adds	r7, #12
 8001d62:	46bd      	mov	sp, r7
 8001d64:	bc80      	pop	{r7}
 8001d66:	4770      	bx	lr

08001d68 <HAL_UART_ErrorCallback>:
 8001d68:	b480      	push	{r7}
 8001d6a:	b083      	sub	sp, #12
 8001d6c:	af00      	add	r7, sp, #0
 8001d6e:	6078      	str	r0, [r7, #4]
 8001d70:	bf00      	nop
 8001d72:	370c      	adds	r7, #12
 8001d74:	46bd      	mov	sp, r7
 8001d76:	bc80      	pop	{r7}
 8001d78:	4770      	bx	lr

08001d7a <HAL_UARTEx_RxEventCallback>:
 8001d7a:	b480      	push	{r7}
 8001d7c:	b083      	sub	sp, #12
 8001d7e:	af00      	add	r7, sp, #0
 8001d80:	6078      	str	r0, [r7, #4]
 8001d82:	460b      	mov	r3, r1
 8001d84:	807b      	strh	r3, [r7, #2]
 8001d86:	bf00      	nop
 8001d88:	370c      	adds	r7, #12
 8001d8a:	46bd      	mov	sp, r7
 8001d8c:	bc80      	pop	{r7}
 8001d8e:	4770      	bx	lr

08001d90 <UART_WaitOnFlagUntilTimeout>:
 8001d90:	b580      	push	{r7, lr}
 8001d92:	b090      	sub	sp, #64	; 0x40
 8001d94:	af00      	add	r7, sp, #0
 8001d96:	60f8      	str	r0, [r7, #12]
 8001d98:	60b9      	str	r1, [r7, #8]
 8001d9a:	603b      	str	r3, [r7, #0]
 8001d9c:	4613      	mov	r3, r2
 8001d9e:	71fb      	strb	r3, [r7, #7]
 8001da0:	e050      	b.n	8001e44 <UART_WaitOnFlagUntilTimeout+0xb4>
 8001da2:	6cbb      	ldr	r3, [r7, #72]	; 0x48
 8001da4:	f1b3 3fff 	cmp.w	r3, #4294967295
 8001da8:	d04c      	beq.n	8001e44 <UART_WaitOnFlagUntilTimeout+0xb4>
 8001daa:	6cbb      	ldr	r3, [r7, #72]	; 0x48
 8001dac:	2b00      	cmp	r3, #0
 8001dae:	d007      	beq.n	8001dc0 <UART_WaitOnFlagUntilTimeout+0x30>
 8001db0:	f7fe fc40 	bl	8000634 <HAL_GetTick>
 8001db4:	4602      	mov	r2, r0
 8001db6:	683b      	ldr	r3, [r7, #0]
 8001db8:	1ad3      	subs	r3, r2, r3
 8001dba:	6cba      	ldr	r2, [r7, #72]	; 0x48
 8001dbc:	429a      	cmp	r2, r3
 8001dbe:	d241      	bcs.n	8001e44 <UART_WaitOnFlagUntilTimeout+0xb4>
 8001dc0:	68fb      	ldr	r3, [r7, #12]
 8001dc2:	681b      	ldr	r3, [r3, #0]
 8001dc4:	330c      	adds	r3, #12
 8001dc6:	62bb      	str	r3, [r7, #40]	; 0x28
 8001dc8:	6abb      	ldr	r3, [r7, #40]	; 0x28
 8001dca:	e853 3f00 	ldrex	r3, [r3]
 8001dce:	627b      	str	r3, [r7, #36]	; 0x24
 8001dd0:	6a7b      	ldr	r3, [r7, #36]	; 0x24
 8001dd2:	f423 73d0 	bic.w	r3, r3, #416	; 0x1a0
 8001dd6:	63fb      	str	r3, [r7, #60]	; 0x3c
 8001dd8:	68fb      	ldr	r3, [r7, #12]
 8001dda:	681b      	ldr	r3, [r3, #0]
 8001ddc:	330c      	adds	r3, #12
 8001dde:	6bfa      	ldr	r2, [r7, #60]	; 0x3c
 8001de0:	637a      	str	r2, [r7, #52]	; 0x34
 8001de2:	633b      	str	r3, [r7, #48]	; 0x30
 8001de4:	6b39      	ldr	r1, [r7, #48]	; 0x30
 8001de6:	6b7a      	ldr	r2, [r7, #52]	; 0x34
 8001de8:	e841 2300 	strex	r3, r2, [r1]
 8001dec:	62fb      	str	r3, [r7, #44]	; 0x2c
 8001dee:	6afb      	ldr	r3, [r7, #44]	; 0x2c
 8001df0:	2b00      	cmp	r3, #0
 8001df2:	d1e5      	bne.n	8001dc0 <UART_WaitOnFlagUntilTimeout+0x30>
 8001df4:	68fb      	ldr	r3, [r7, #12]
 8001df6:	681b      	ldr	r3, [r3, #0]
 8001df8:	3314      	adds	r3, #20
 8001dfa:	617b      	str	r3, [r7, #20]
 8001dfc:	697b      	ldr	r3, [r7, #20]
 8001dfe:	e853 3f00 	ldrex	r3, [r3]
 8001e02:	613b      	str	r3, [r7, #16]
 8001e04:	693b      	ldr	r3, [r7, #16]
 8001e06:	f023 0301 	bic.w	r3, r3, #1
 8001e0a:	63bb      	str	r3, [r7, #56]	; 0x38
 8001e0c:	68fb      	ldr	r3, [r7, #12]
 8001e0e:	681b      	ldr	r3, [r3, #0]
 8001e10:	3314      	adds	r3, #20
 8001e12:	6bba      	ldr	r2, [r7, #56]	; 0x38
 8001e14:	623a      	str	r2, [r7, #32]
 8001e16:	61fb      	str	r3, [r7, #28]
 8001e18:	69f9      	ldr	r1, [r7, #28]
 8001e1a:	6a3a      	ldr	r2, [r7, #32]
 8001e1c:	e841 2300 	strex	r3, r2, [r1]
 8001e20:	61bb      	str	r3, [r7, #24]
 8001e22:	69bb      	ldr	r3, [r7, #24]
 8001e24:	2b00      	cmp	r3, #0
 8001e26:	d1e5      	bne.n	8001df4 <UART_WaitOnFlagUntilTimeout+0x64>
 8001e28:	68fb      	ldr	r3, [r7, #12]
 8001e2a:	2220      	movs	r2, #32
 8001e2c:	f883 2041 	strb.w	r2, [r3, #65]	; 0x41
 8001e30:	68fb      	ldr	r3, [r7, #12]
 8001e32:	2220      	movs	r2, #32
 8001e34:	f883 2042 	strb.w	r2, [r3, #66]	; 0x42
 8001e38:	68fb      	ldr	r3, [r7, #12]
 8001e3a:	2200      	movs	r2, #0
 8001e3c:	f883 2040 	strb.w	r2, [r3, #64]	; 0x40
 8001e40:	2303      	movs	r3, #3
 8001e42:	e00f      	b.n	8001e64 <UART_WaitOnFlagUntilTimeout+0xd4>
 8001e44:	68fb      	ldr	r3, [r7, #12]
 8001e46:	681b      	ldr	r3, [r3, #0]
 8001e48:	681a      	ldr	r2, [r3, #0]
 8001e4a:	68bb      	ldr	r3, [r7, #8]
 8001e4c:	4013      	ands	r3, r2
 8001e4e:	68ba      	ldr	r2, [r7, #8]
 8001e50:	429a      	cmp	r2, r3
 8001e52:	bf0c      	ite	eq
 8001e54:	2301      	moveq	r3, #1
 8001e56:	2300      	movne	r3, #0
 8001e58:	b2db      	uxtb	r3, r3
 8001e5a:	461a      	mov	r2, r3
 8001e5c:	79fb      	ldrb	r3, [r7, #7]
 8001e5e:	429a      	cmp	r2, r3
 8001e60:	d09f      	beq.n	8001da2 <UART_WaitOnFlagUntilTimeout+0x12>
 8001e62:	2300      	movs	r3, #0
 8001e64:	4618      	mov	r0, r3
 8001e66:	3740      	adds	r7, #64	; 0x40
 8001e68:	46bd      	mov	sp, r7
 8001e6a:	bd80      	pop	{r7, pc}

08001e6c <UART_EndRxTransfer>:
 8001e6c:	b480      	push	{r7}
 8001e6e:	b095      	sub	sp, #84	; 0x54
 8001e70:	af00      	add	r7, sp, #0
 8001e72:	6078      	str	r0, [r7, #4]
 8001e74:	687b      	ldr	r3, [r7, #4]
 8001e76:	681b      	ldr	r3, [r3, #0]
 8001e78:	330c      	adds	r3, #12
 8001e7a:	637b      	str	r3, [r7, #52]	; 0x34
 8001e7c:	6b7b      	ldr	r3, [r7, #52]	; 0x34
 8001e7e:	e853 3f00 	ldrex	r3, [r3]
 8001e82:	633b      	str	r3, [r7, #48]	; 0x30
 8001e84:	6b3b      	ldr	r3, [r7, #48]	; 0x30
 8001e86:	f423 7390 	bic.w	r3, r3, #288	; 0x120
 8001e8a:	64fb      	str	r3, [r7, #76]	; 0x4c
 8001e8c:	687b      	ldr	r3, [r7, #4]
 8001e8e:	681b      	ldr	r3, [r3, #0]
 8001e90:	330c      	adds	r3, #12
 8001e92:	6cfa      	ldr	r2, [r7, #76]	; 0x4c
 8001e94:	643a      	str	r2, [r7, #64]	; 0x40
 8001e96:	63fb      	str	r3, [r7, #60]	; 0x3c
 8001e98:	6bf9      	ldr	r1, [r7, #60]	; 0x3c
 8001e9a:	6c3a      	ldr	r2, [r7, #64]	; 0x40
 8001e9c:	e841 2300 	strex	r3, r2, [r1]
 8001ea0:	63bb      	str	r3, [r7, #56]	; 0x38
 8001ea2:	6bbb      	ldr	r3, [r7, #56]	; 0x38
 8001ea4:	2b00      	cmp	r3, #0
 8001ea6:	d1e5      	bne.n	8001e74 <UART_EndRxTransfer+0x8>
 8001ea8:	687b      	ldr	r3, [r7, #4]
 8001eaa:	681b      	ldr	r3, [r3, #0]
 8001eac:	3314      	adds	r3, #20
 8001eae:	623b      	str	r3, [r7, #32]
 8001eb0:	6a3b      	ldr	r3, [r7, #32]
 8001eb2:	e853 3f00 	ldrex	r3, [r3]
 8001eb6:	61fb      	str	r3, [r7, #28]
 8001eb8:	69fb      	ldr	r3, [r7, #28]
 8001eba:	f023 0301 	bic.w	r3, r3, #1
 8001ebe:	64bb      	str	r3, [r7, #72]	; 0x48
 8001ec0:	687b      	ldr	r3, [r7, #4]
 8001ec2:	681b      	ldr	r3, [r3, #0]
 8001ec4:	3314      	adds	r3, #20
 8001ec6:	6cba      	ldr	r2, [r7, #72]	; 0x48
 8001ec8:	62fa      	str	r2, [r7, #44]	; 0x2c
 8001eca:	62bb      	str	r3, [r7, #40]	; 0x28
 8001ecc:	6ab9      	ldr	r1, [r7, #40]	; 0x28
 8001ece:	6afa      	ldr	r2, [r7, #44]	; 0x2c
 8001ed0:	e841 2300 	strex	r3, r2, [r1]
 8001ed4:	627b      	str	r3, [r7, #36]	; 0x24
 8001ed6:	6a7b      	ldr	r3, [r7, #36]	; 0x24
 8001ed8:	2b00      	cmp	r3, #0
 8001eda:	d1e5      	bne.n	8001ea8 <UART_EndRxTransfer+0x3c>
 8001edc:	687b      	ldr	r3, [r7, #4]
 8001ede:	6b1b      	ldr	r3, [r3, #48]	; 0x30
 8001ee0:	2b01      	cmp	r3, #1
 8001ee2:	d119      	bne.n	8001f18 <UART_EndRxTransfer+0xac>
 8001ee4:	687b      	ldr	r3, [r7, #4]
 8001ee6:	681b      	ldr	r3, [r3, #0]
 8001ee8:	330c      	adds	r3, #12
 8001eea:	60fb      	str	r3, [r7, #12]
 8001eec:	68fb      	ldr	r3, [r7, #12]
 8001eee:	e853 3f00 	ldrex	r3, [r3]
 8001ef2:	60bb      	str	r3, [r7, #8]
 8001ef4:	68bb      	ldr	r3, [r7, #8]
 8001ef6:	f023 0310 	bic.w	r3, r3, #16
 8001efa:	647b      	str	r3, [r7, #68]	; 0x44
 8001efc:	687b      	ldr	r3, [r7, #4]
 8001efe:	681b      	ldr	r3, [r3, #0]
 8001f00:	330c      	adds	r3, #12
 8001f02:	6c7a      	ldr	r2, [r7, #68]	; 0x44
 8001f04:	61ba      	str	r2, [r7, #24]
 8001f06:	617b      	str	r3, [r7, #20]
 8001f08:	6979      	ldr	r1, [r7, #20]
 8001f0a:	69ba      	ldr	r2, [r7, #24]
 8001f0c:	e841 2300 	strex	r3, r2, [r1]
 8001f10:	613b      	str	r3, [r7, #16]
 8001f12:	693b      	ldr	r3, [r7, #16]
 8001f14:	2b00      	cmp	r3, #0
 8001f16:	d1e5      	bne.n	8001ee4 <UART_EndRxTransfer+0x78>
 8001f18:	687b      	ldr	r3, [r7, #4]
 8001f1a:	2220      	movs	r2, #32
 8001f1c:	f883 2042 	strb.w	r2, [r3, #66]	; 0x42
 8001f20:	687b      	ldr	r3, [r7, #4]
 8001f22:	2200      	movs	r2, #0
 8001f24:	631a      	str	r2, [r3, #48]	; 0x30
 8001f26:	bf00      	nop
 8001f28:	3754      	adds	r7, #84	; 0x54
 8001f2a:	46bd      	mov	sp, r7
 8001f2c:	bc80      	pop	{r7}
 8001f2e:	4770      	bx	lr

08001f30 <UART_DMAAbortOnError>:
 8001f30:	b580      	push	{r7, lr}
 8001f32:	b084      	sub	sp, #16
 8001f34:	af00      	add	r7, sp, #0
 8001f36:	6078      	str	r0, [r7, #4]
 8001f38:	687b      	ldr	r3, [r7, #4]
 8001f3a:	6a5b      	ldr	r3, [r3, #36]	; 0x24
 8001f3c:	60fb      	str	r3, [r7, #12]
 8001f3e:	68fb      	ldr	r3, [r7, #12]
 8001f40:	2200      	movs	r2, #0
 8001f42:	85da      	strh	r2, [r3, #46]	; 0x2e
 8001f44:	68fb      	ldr	r3, [r7, #12]
 8001f46:	2200      	movs	r2, #0
 8001f48:	84da      	strh	r2, [r3, #38]	; 0x26
 8001f4a:	68f8      	ldr	r0, [r7, #12]
 8001f4c:	f7ff ff0c 	bl	8001d68 <HAL_UART_ErrorCallback>
 8001f50:	bf00      	nop
 8001f52:	3710      	adds	r7, #16
 8001f54:	46bd      	mov	sp, r7
 8001f56:	bd80      	pop	{r7, pc}

08001f58 <UART_Transmit_IT>:
 8001f58:	b480      	push	{r7}
 8001f5a:	b085      	sub	sp, #20
 8001f5c:	af00      	add	r7, sp, #0
 8001f5e:	6078      	str	r0, [r7, #4]
 8001f60:	687b      	ldr	r3, [r7, #4]
 8001f62:	f893 3041 	ldrb.w	r3, [r3, #65]	; 0x41
 8001f66:	b2db      	uxtb	r3, r3
 8001f68:	2b21      	cmp	r3, #33	; 0x21
 8001f6a:	d13e      	bne.n	8001fea <UART_Transmit_IT+0x92>
 8001f6c:	687b      	ldr	r3, [r7, #4]
 8001f6e:	689b      	ldr	r3, [r3, #8]
 8001f70:	f5b3 5f80 	cmp.w	r3, #4096	; 0x1000
 8001f74:	d114      	bne.n	8001fa0 <UART_Transmit_IT+0x48>
 8001f76:	687b      	ldr	r3, [r7, #4]
 8001f78:	691b      	ldr	r3, [r3, #16]
 8001f7a:	2b00      	cmp	r3, #0
 8001f7c:	d110      	bne.n	8001fa0 <UART_Transmit_IT+0x48>
 8001f7e:	687b      	ldr	r3, [r7, #4]
 8001f80:	6a1b      	ldr	r3, [r3, #32]
 8001f82:	60fb      	str	r3, [r7, #12]
 8001f84:	68fb      	ldr	r3, [r7, #12]
 8001f86:	881b      	ldrh	r3, [r3, #0]
 8001f88:	461a      	mov	r2, r3
 8001f8a:	687b      	ldr	r3, [r7, #4]
 8001f8c:	681b      	ldr	r3, [r3, #0]
 8001f8e:	f3c2 0208 	ubfx	r2, r2, #0, #9
 8001f92:	605a      	str	r2, [r3, #4]
 8001f94:	687b      	ldr	r3, [r7, #4]
 8001f96:	6a1b      	ldr	r3, [r3, #32]
 8001f98:	1c9a      	adds	r2, r3, #2
 8001f9a:	687b      	ldr	r3, [r7, #4]
 8001f9c:	621a      	str	r2, [r3, #32]
 8001f9e:	e008      	b.n	8001fb2 <UART_Transmit_IT+0x5a>
 8001fa0:	687b      	ldr	r3, [r7, #4]
 8001fa2:	6a1b      	ldr	r3, [r3, #32]
 8001fa4:	1c59      	adds	r1, r3, #1
 8001fa6:	687a      	ldr	r2, [r7, #4]
 8001fa8:	6211      	str	r1, [r2, #32]
 8001faa:	781a      	ldrb	r2, [r3, #0]
 8001fac:	687b      	ldr	r3, [r7, #4]
 8001fae:	681b      	ldr	r3, [r3, #0]
 8001fb0:	605a      	str	r2, [r3, #4]
 8001fb2:	687b      	ldr	r3, [r7, #4]
 8001fb4:	8cdb      	ldrh	r3, [r3, #38]	; 0x26
 8001fb6:	b29b      	uxth	r3, r3
 8001fb8:	3b01      	subs	r3, #1
 8001fba:	b29b      	uxth	r3, r3
 8001fbc:	687a      	ldr	r2, [r7, #4]
 8001fbe:	4619      	mov	r1, r3
 8001fc0:	84d1      	strh	r1, [r2, #38]	; 0x26
 8001fc2:	2b00      	cmp	r3, #0
 8001fc4:	d10f      	bne.n	8001fe6 <UART_Transmit_IT+0x8e>
 8001fc6:	687b      	ldr	r3, [r7, #4]
 8001fc8:	681b      	ldr	r3, [r3, #0]
 8001fca:	68da      	ldr	r2, [r3, #12]
 8001fcc:	687b      	ldr	r3, [r7, #4]
 8001fce:	681b      	ldr	r3, [r3, #0]
 8001fd0:	f022 0280 	bic.w	r2, r2, #128	; 0x80
 8001fd4:	60da      	str	r2, [r3, #12]
 8001fd6:	687b      	ldr	r3, [r7, #4]
 8001fd8:	681b      	ldr	r3, [r3, #0]
 8001fda:	68da      	ldr	r2, [r3, #12]
 8001fdc:	687b      	ldr	r3, [r7, #4]
 8001fde:	681b      	ldr	r3, [r3, #0]
 8001fe0:	f042 0240 	orr.w	r2, r2, #64	; 0x40
 8001fe4:	60da      	str	r2, [r3, #12]
 8001fe6:	2300      	movs	r3, #0
 8001fe8:	e000      	b.n	8001fec <UART_Transmit_IT+0x94>
 8001fea:	2302      	movs	r3, #2
 8001fec:	4618      	mov	r0, r3
 8001fee:	3714      	adds	r7, #20
 8001ff0:	46bd      	mov	sp, r7
 8001ff2:	bc80      	pop	{r7}
 8001ff4:	4770      	bx	lr

08001ff6 <UART_EndTransmit_IT>:
 8001ff6:	b580      	push	{r7, lr}
 8001ff8:	b082      	sub	sp, #8
 8001ffa:	af00      	add	r7, sp, #0
 8001ffc:	6078      	str	r0, [r7, #4]
 8001ffe:	687b      	ldr	r3, [r7, #4]
 8002000:	681b      	ldr	r3, [r3, #0]
 8002002:	68da      	ldr	r2, [r3, #12]
 8002004:	687b      	ldr	r3, [r7, #4]
 8002006:	681b      	ldr	r3, [r3, #0]
 8002008:	f022 0240 	bic.w	r2, r2, #64	; 0x40
 800200c:	60da      	str	r2, [r3, #12]
 800200e:	687b      	ldr	r3, [r7, #4]
 8002010:	2220      	movs	r2, #32
 8002012:	f883 2041 	strb.w	r2, [r3, #65]	; 0x41
 8002016:	6878      	ldr	r0, [r7, #4]
 8002018:	f7ff fe94 	bl	8001d44 <HAL_UART_TxCpltCallback>
 800201c:	2300      	movs	r3, #0
 800201e:	4618      	mov	r0, r3
 8002020:	3708      	adds	r7, #8
 8002022:	46bd      	mov	sp, r7
 8002024:	bd80      	pop	{r7, pc}

08002026 <UART_Receive_IT>:
 8002026:	b580      	push	{r7, lr}
 8002028:	b08c      	sub	sp, #48	; 0x30
 800202a:	af00      	add	r7, sp, #0
 800202c:	6078      	str	r0, [r7, #4]
 800202e:	687b      	ldr	r3, [r7, #4]
 8002030:	f893 3042 	ldrb.w	r3, [r3, #66]	; 0x42
 8002034:	b2db      	uxtb	r3, r3
 8002036:	2b22      	cmp	r3, #34	; 0x22
 8002038:	f040 80ae 	bne.w	8002198 <UART_Receive_IT+0x172>
 800203c:	687b      	ldr	r3, [r7, #4]
 800203e:	689b      	ldr	r3, [r3, #8]
 8002040:	f5b3 5f80 	cmp.w	r3, #4096	; 0x1000
 8002044:	d117      	bne.n	8002076 <UART_Receive_IT+0x50>
 8002046:	687b      	ldr	r3, [r7, #4]
 8002048:	691b      	ldr	r3, [r3, #16]
 800204a:	2b00      	cmp	r3, #0
 800204c:	d113      	bne.n	8002076 <UART_Receive_IT+0x50>
 800204e:	2300      	movs	r3, #0
 8002050:	62fb      	str	r3, [r7, #44]	; 0x2c
 8002052:	687b      	ldr	r3, [r7, #4]
 8002054:	6a9b      	ldr	r3, [r3, #40]	; 0x28
 8002056:	62bb      	str	r3, [r7, #40]	; 0x28
 8002058:	687b      	ldr	r3, [r7, #4]
 800205a:	681b      	ldr	r3, [r3, #0]
 800205c:	685b      	ldr	r3, [r3, #4]
 800205e:	b29b      	uxth	r3, r3
 8002060:	f3c3 0308 	ubfx	r3, r3, #0, #9
 8002064:	b29a      	uxth	r2, r3
 8002066:	6abb      	ldr	r3, [r7, #40]	; 0x28
 8002068:	801a      	strh	r2, [r3, #0]
 800206a:	687b      	ldr	r3, [r7, #4]
 800206c:	6a9b      	ldr	r3, [r3, #40]	; 0x28
 800206e:	1c9a      	adds	r2, r3, #2
 8002070:	687b      	ldr	r3, [r7, #4]
 8002072:	629a      	str	r2, [r3, #40]	; 0x28
 8002074:	e026      	b.n	80020c4 <UART_Receive_IT+0x9e>
 8002076:	687b      	ldr	r3, [r7, #4]
 8002078:	6a9b      	ldr	r3, [r3, #40]	; 0x28
 800207a:	62fb      	str	r3, [r7, #44]	; 0x2c
 800207c:	2300      	movs	r3, #0
 800207e:	62bb      	str	r3, [r7, #40]	; 0x28
 8002080:	687b      	ldr	r3, [r7, #4]
 8002082:	689b      	ldr	r3, [r3, #8]
 8002084:	f5b3 5f80 	cmp.w	r3, #4096	; 0x1000
 8002088:	d007      	beq.n	800209a <UART_Receive_IT+0x74>
 800208a:	687b      	ldr	r3, [r7, #4]
 800208c:	689b      	ldr	r3, [r3, #8]
 800208e:	2b00      	cmp	r3, #0
 8002090:	d10a      	bne.n	80020a8 <UART_Receive_IT+0x82>
 8002092:	687b      	ldr	r3, [r7, #4]
 8002094:	691b      	ldr	r3, [r3, #16]
 8002096:	2b00      	cmp	r3, #0
 8002098:	d106      	bne.n	80020a8 <UART_Receive_IT+0x82>
 800209a:	687b      	ldr	r3, [r7, #4]
 800209c:	681b      	ldr	r3, [r3, #0]
 800209e:	685b      	ldr	r3, [r3, #4]
 80020a0:	b2da      	uxtb	r2, r3
 80020a2:	6afb      	ldr	r3, [r7, #44]	; 0x2c
 80020a4:	701a      	strb	r2, [r3, #0]
 80020a6:	e008      	b.n	80020ba <UART_Receive_IT+0x94>
 80020a8:	687b      	ldr	r3, [r7, #4]
 80020aa:	681b      	ldr	r3, [r3, #0]
 80020ac:	685b      	ldr	r3, [r3, #4]
 80020ae:	b2db      	uxtb	r3, r3
 80020b0:	f003 037f 	and.w	r3, r3, #127	; 0x7f
 80020b4:	b2da      	uxtb	r2, r3
 80020b6:	6afb      	ldr	r3, [r7, #44]	; 0x2c
 80020b8:	701a      	strb	r2, [r3, #0]
 80020ba:	687b      	ldr	r3, [r7, #4]
 80020bc:	6a9b      	ldr	r3, [r3, #40]	; 0x28
 80020be:	1c5a      	adds	r2, r3, #1
 80020c0:	687b      	ldr	r3, [r7, #4]
 80020c2:	629a      	str	r2, [r3, #40]	; 0x28
 80020c4:	687b      	ldr	r3, [r7, #4]
 80020c6:	8ddb      	ldrh	r3, [r3, #46]	; 0x2e
 80020c8:	b29b      	uxth	r3, r3
 80020ca:	3b01      	subs	r3, #1
 80020cc:	b29b      	uxth	r3, r3
 80020ce:	687a      	ldr	r2, [r7, #4]
 80020d0:	4619      	mov	r1, r3
 80020d2:	85d1      	strh	r1, [r2, #46]	; 0x2e
 80020d4:	2b00      	cmp	r3, #0
 80020d6:	d15d      	bne.n	8002194 <UART_Receive_IT+0x16e>
 80020d8:	687b      	ldr	r3, [r7, #4]
 80020da:	681b      	ldr	r3, [r3, #0]
 80020dc:	68da      	ldr	r2, [r3, #12]
 80020de:	687b      	ldr	r3, [r7, #4]
 80020e0:	681b      	ldr	r3, [r3, #0]
 80020e2:	f022 0220 	bic.w	r2, r2, #32
 80020e6:	60da      	str	r2, [r3, #12]
 80020e8:	687b      	ldr	r3, [r7, #4]
 80020ea:	681b      	ldr	r3, [r3, #0]
 80020ec:	68da      	ldr	r2, [r3, #12]
 80020ee:	687b      	ldr	r3, [r7, #4]
 80020f0:	681b      	ldr	r3, [r3, #0]
 80020f2:	f422 7280 	bic.w	r2, r2, #256	; 0x100
 80020f6:	60da      	str	r2, [r3, #12]
 80020f8:	687b      	ldr	r3, [r7, #4]
 80020fa:	681b      	ldr	r3, [r3, #0]
 80020fc:	695a      	ldr	r2, [r3, #20]
 80020fe:	687b      	ldr	r3, [r7, #4]
 8002100:	681b      	ldr	r3, [r3, #0]
 8002102:	f022 0201 	bic.w	r2, r2, #1
 8002106:	615a      	str	r2, [r3, #20]
 8002108:	687b      	ldr	r3, [r7, #4]
 800210a:	2220      	movs	r2, #32
 800210c:	f883 2042 	strb.w	r2, [r3, #66]	; 0x42
 8002110:	687b      	ldr	r3, [r7, #4]
 8002112:	2200      	movs	r2, #0
 8002114:	635a      	str	r2, [r3, #52]	; 0x34
 8002116:	687b      	ldr	r3, [r7, #4]
 8002118:	6b1b      	ldr	r3, [r3, #48]	; 0x30
 800211a:	2b01      	cmp	r3, #1
 800211c:	d135      	bne.n	800218a <UART_Receive_IT+0x164>
 800211e:	687b      	ldr	r3, [r7, #4]
 8002120:	2200      	movs	r2, #0
 8002122:	631a      	str	r2, [r3, #48]	; 0x30
 8002124:	687b      	ldr	r3, [r7, #4]
 8002126:	681b      	ldr	r3, [r3, #0]
 8002128:	330c      	adds	r3, #12
 800212a:	617b      	str	r3, [r7, #20]
 800212c:	697b      	ldr	r3, [r7, #20]
 800212e:	e853 3f00 	ldrex	r3, [r3]
 8002132:	613b      	str	r3, [r7, #16]
 8002134:	693b      	ldr	r3, [r7, #16]
 8002136:	f023 0310 	bic.w	r3, r3, #16
 800213a:	627b      	str	r3, [r7, #36]	; 0x24
 800213c:	687b      	ldr	r3, [r7, #4]
 800213e:	681b      	ldr	r3, [r3, #0]
 8002140:	330c      	adds	r3, #12
 8002142:	6a7a      	ldr	r2, [r7, #36]	; 0x24
 8002144:	623a      	str	r2, [r7, #32]
 8002146:	61fb      	str	r3, [r7, #28]
 8002148:	69f9      	ldr	r1, [r7, #28]
 800214a:	6a3a      	ldr	r2, [r7, #32]
 800214c:	e841 2300 	strex	r3, r2, [r1]
 8002150:	61bb      	str	r3, [r7, #24]
 8002152:	69bb      	ldr	r3, [r7, #24]
 8002154:	2b00      	cmp	r3, #0
 8002156:	d1e5      	bne.n	8002124 <UART_Receive_IT+0xfe>
 8002158:	687b      	ldr	r3, [r7, #4]
 800215a:	681b      	ldr	r3, [r3, #0]
 800215c:	681b      	ldr	r3, [r3, #0]
 800215e:	f003 0310 	and.w	r3, r3, #16
 8002162:	2b10      	cmp	r3, #16
 8002164:	d10a      	bne.n	800217c <UART_Receive_IT+0x156>
 8002166:	2300      	movs	r3, #0
 8002168:	60fb      	str	r3, [r7, #12]
 800216a:	687b      	ldr	r3, [r7, #4]
 800216c:	681b      	ldr	r3, [r3, #0]
 800216e:	681b      	ldr	r3, [r3, #0]
 8002170:	60fb      	str	r3, [r7, #12]
 8002172:	687b      	ldr	r3, [r7, #4]
 8002174:	681b      	ldr	r3, [r3, #0]
 8002176:	685b      	ldr	r3, [r3, #4]
 8002178:	60fb      	str	r3, [r7, #12]
 800217a:	68fb      	ldr	r3, [r7, #12]
 800217c:	687b      	ldr	r3, [r7, #4]
 800217e:	8d9b      	ldrh	r3, [r3, #44]	; 0x2c
 8002180:	4619      	mov	r1, r3
 8002182:	6878      	ldr	r0, [r7, #4]
 8002184:	f7ff fdf9 	bl	8001d7a <HAL_UARTEx_RxEventCallback>
 8002188:	e002      	b.n	8002190 <UART_Receive_IT+0x16a>
 800218a:	6878      	ldr	r0, [r7, #4]
 800218c:	f7ff fde3 	bl	8001d56 <HAL_UART_RxCpltCallback>
 8002190:	2300      	movs	r3, #0
 8002192:	e002      	b.n	800219a <UART_Receive_IT+0x174>
 8002194:	2300      	movs	r3, #0
 8002196:	e000      	b.n	800219a <UART_Receive_IT+0x174>
 8002198:	2302      	movs	r3, #2
 800219a:	4618      	mov	r0, r3
 800219c:	3730      	adds	r7, #48	; 0x30
 800219e:	46bd      	mov	sp, r7
 80021a0:	bd80      	pop	{r7, pc}
	...

080021a4 <UART_SetConfig>:
 80021a4:	b580      	push	{r7, lr}
 80021a6:	b084      	sub	sp, #16
 80021a8:	af00      	add	r7, sp, #0
 80021aa:	6078      	str	r0, [r7, #4]
 80021ac:	687b      	ldr	r3, [r7, #4]
 80021ae:	681b      	ldr	r3, [r3, #0]
 80021b0:	691b      	ldr	r3, [r3, #16]
 80021b2:	f423 5140 	bic.w	r1, r3, #12288	; 0x3000
 80021b6:	687b      	ldr	r3, [r7, #4]
 80021b8:	68da      	ldr	r2, [r3, #12]
 80021ba:	687b      	ldr	r3, [r7, #4]
 80021bc:	681b      	ldr	r3, [r3, #0]
 80021be:	430a      	orrs	r2, r1
 80021c0:	611a      	str	r2, [r3, #16]
 80021c2:	687b      	ldr	r3, [r7, #4]
 80021c4:	689a      	ldr	r2, [r3, #8]
 80021c6:	687b      	ldr	r3, [r7, #4]
 80021c8:	691b      	ldr	r3, [r3, #16]
 80021ca:	431a      	orrs	r2, r3
 80021cc:	687b      	ldr	r3, [r7, #4]
 80021ce:	695b      	ldr	r3, [r3, #20]
 80021d0:	4313      	orrs	r3, r2
 80021d2:	60bb      	str	r3, [r7, #8]
 80021d4:	687b      	ldr	r3, [r7, #4]
 80021d6:	681b      	ldr	r3, [r3, #0]
 80021d8:	68db      	ldr	r3, [r3, #12]
 80021da:	f423 53b0 	bic.w	r3, r3, #5632	; 0x1600
 80021de:	f023 030c 	bic.w	r3, r3, #12
 80021e2:	687a      	ldr	r2, [r7, #4]
 80021e4:	6812      	ldr	r2, [r2, #0]
 80021e6:	68b9      	ldr	r1, [r7, #8]
 80021e8:	430b      	orrs	r3, r1
 80021ea:	60d3      	str	r3, [r2, #12]
 80021ec:	687b      	ldr	r3, [r7, #4]
 80021ee:	681b      	ldr	r3, [r3, #0]
 80021f0:	695b      	ldr	r3, [r3, #20]
 80021f2:	f423 7140 	bic.w	r1, r3, #768	; 0x300
 80021f6:	687b      	ldr	r3, [r7, #4]
 80021f8:	699a      	ldr	r2, [r3, #24]
 80021fa:	687b      	ldr	r3, [r7, #4]
 80021fc:	681b      	ldr	r3, [r3, #0]
 80021fe:	430a      	orrs	r2, r1
 8002200:	615a      	str	r2, [r3, #20]
 8002202:	687b      	ldr	r3, [r7, #4]
 8002204:	681b      	ldr	r3, [r3, #0]
 8002206:	4a2c      	ldr	r2, [pc, #176]	; (80022b8 <UART_SetConfig+0x114>)
 8002208:	4293      	cmp	r3, r2
 800220a:	d103      	bne.n	8002214 <UART_SetConfig+0x70>
 800220c:	f7ff f970 	bl	80014f0 <HAL_RCC_GetPCLK2Freq>
 8002210:	60f8      	str	r0, [r7, #12]
 8002212:	e002      	b.n	800221a <UART_SetConfig+0x76>
 8002214:	f7ff f958 	bl	80014c8 <HAL_RCC_GetPCLK1Freq>
 8002218:	60f8      	str	r0, [r7, #12]
 800221a:	68fa      	ldr	r2, [r7, #12]
 800221c:	4613      	mov	r3, r2
 800221e:	009b      	lsls	r3, r3, #2
 8002220:	4413      	add	r3, r2
 8002222:	009a      	lsls	r2, r3, #2
 8002224:	441a      	add	r2, r3
 8002226:	687b      	ldr	r3, [r7, #4]
 8002228:	685b      	ldr	r3, [r3, #4]
 800222a:	009b      	lsls	r3, r3, #2
 800222c:	fbb2 f3f3 	udiv	r3, r2, r3
 8002230:	4a22      	ldr	r2, [pc, #136]	; (80022bc <UART_SetConfig+0x118>)
 8002232:	fba2 2303 	umull	r2, r3, r2, r3
 8002236:	095b      	lsrs	r3, r3, #5
 8002238:	0119      	lsls	r1, r3, #4
 800223a:	68fa      	ldr	r2, [r7, #12]
 800223c:	4613      	mov	r3, r2
 800223e:	009b      	lsls	r3, r3, #2
 8002240:	4413      	add	r3, r2
 8002242:	009a      	lsls	r2, r3, #2
 8002244:	441a      	add	r2, r3
 8002246:	687b      	ldr	r3, [r7, #4]
 8002248:	685b      	ldr	r3, [r3, #4]
 800224a:	009b      	lsls	r3, r3, #2
 800224c:	fbb2 f2f3 	udiv	r2, r2, r3
 8002250:	4b1a      	ldr	r3, [pc, #104]	; (80022bc <UART_SetConfig+0x118>)
 8002252:	fba3 0302 	umull	r0, r3, r3, r2
 8002256:	095b      	lsrs	r3, r3, #5
 8002258:	2064      	movs	r0, #100	; 0x64
 800225a:	fb00 f303 	mul.w	r3, r0, r3
 800225e:	1ad3      	subs	r3, r2, r3
 8002260:	011b      	lsls	r3, r3, #4
 8002262:	3332      	adds	r3, #50	; 0x32
 8002264:	4a15      	ldr	r2, [pc, #84]	; (80022bc <UART_SetConfig+0x118>)
 8002266:	fba2 2303 	umull	r2, r3, r2, r3
 800226a:	095b      	lsrs	r3, r3, #5
 800226c:	f003 03f0 	and.w	r3, r3, #240	; 0xf0
 8002270:	4419      	add	r1, r3
 8002272:	68fa      	ldr	r2, [r7, #12]
 8002274:	4613      	mov	r3, r2
 8002276:	009b      	lsls	r3, r3, #2
 8002278:	4413      	add	r3, r2
 800227a:	009a      	lsls	r2, r3, #2
 800227c:	441a      	add	r2, r3
 800227e:	687b      	ldr	r3, [r7, #4]
 8002280:	685b      	ldr	r3, [r3, #4]
 8002282:	009b      	lsls	r3, r3, #2
 8002284:	fbb2 f2f3 	udiv	r2, r2, r3
 8002288:	4b0c      	ldr	r3, [pc, #48]	; (80022bc <UART_SetConfig+0x118>)
 800228a:	fba3 0302 	umull	r0, r3, r3, r2
 800228e:	095b      	lsrs	r3, r3, #5
 8002290:	2064      	movs	r0, #100	; 0x64
 8002292:	fb00 f303 	mul.w	r3, r0, r3
 8002296:	1ad3      	subs	r3, r2, r3
 8002298:	011b      	lsls	r3, r3, #4
 800229a:	3332      	adds	r3, #50	; 0x32
 800229c:	4a07      	ldr	r2, [pc, #28]	; (80022bc <UART_SetConfig+0x118>)
 800229e:	fba2 2303 	umull	r2, r3, r2, r3
 80022a2:	095b      	lsrs	r3, r3, #5
 80022a4:	f003 020f 	and.w	r2, r3, #15
 80022a8:	687b      	ldr	r3, [r7, #4]
 80022aa:	681b      	ldr	r3, [r3, #0]
 80022ac:	440a      	add	r2, r1
 80022ae:	609a      	str	r2, [r3, #8]
 80022b0:	bf00      	nop
 80022b2:	3710      	adds	r7, #16
 80022b4:	46bd      	mov	sp, r7
 80022b6:	bd80      	pop	{r7, pc}
 80022b8:	40013800 	.word	0x40013800
 80022bc:	51eb851f 	.word	0x51eb851f

080022c0 <memset>:
 80022c0:	4603      	mov	r3, r0
 80022c2:	4402      	add	r2, r0
 80022c4:	4293      	cmp	r3, r2
 80022c6:	d100      	bne.n	80022ca <memset+0xa>
 80022c8:	4770      	bx	lr
 80022ca:	f803 1b01 	strb.w	r1, [r3], #1
 80022ce:	e7f9      	b.n	80022c4 <memset+0x4>

080022d0 <__libc_init_array>:
 80022d0:	b570      	push	{r4, r5, r6, lr}
 80022d2:	2600      	movs	r6, #0
 80022d4:	4d0c      	ldr	r5, [pc, #48]	; (8002308 <__libc_init_array+0x38>)
 80022d6:	4c0d      	ldr	r4, [pc, #52]	; (800230c <__libc_init_array+0x3c>)
 80022d8:	1b64      	subs	r4, r4, r5
 80022da:	10a4      	asrs	r4, r4, #2
 80022dc:	42a6      	cmp	r6, r4
 80022de:	d109      	bne.n	80022f4 <__libc_init_array+0x24>
 80022e0:	f000 f81a 	bl	8002318 <_init>
 80022e4:	2600      	movs	r6, #0
 80022e6:	4d0a      	ldr	r5, [pc, #40]	; (8002310 <__libc_init_array+0x40>)
 80022e8:	4c0a      	ldr	r4, [pc, #40]	; (8002314 <__libc_init_array+0x44>)
 80022ea:	1b64      	subs	r4, r4, r5
 80022ec:	10a4      	asrs	r4, r4, #2
 80022ee:	42a6      	cmp	r6, r4
 80022f0:	d105      	bne.n	80022fe <__libc_init_array+0x2e>
 80022f2:	bd70      	pop	{r4, r5, r6, pc}
 80022f4:	f855 3b04 	ldr.w	r3, [r5], #4
 80022f8:	4798      	blx	r3
 80022fa:	3601      	adds	r6, #1
 80022fc:	e7ee      	b.n	80022dc <__libc_init_array+0xc>
 80022fe:	f855 3b04 	ldr.w	r3, [r5], #4
 8002302:	4798      	blx	r3
 8002304:	3601      	adds	r6, #1
 8002306:	e7f2      	b.n	80022ee <__libc_init_array+0x1e>
 8002308:	0800235c 	.word	0x0800235c
 800230c:	0800235c 	.word	0x0800235c
 8002310:	0800235c 	.word	0x0800235c
 8002314:	08002360 	.word	0x08002360

08002318 <_init>:
 8002318:	b5f8      	push	{r3, r4, r5, r6, r7, lr}
 800231a:	bf00      	nop
 800231c:	bcf8      	pop	{r3, r4, r5, r6, r7}
 800231e:	bc08      	pop	{r3}
 8002320:	469e      	mov	lr, r3
 8002322:	4770      	bx	lr

08002324 <_fini>:
 8002324:	b5f8      	push	{r3, r4, r5, r6, r7, lr}
 8002326:	bf00      	nop
 8002328:	bcf8      	pop	{r3, r4, r5, r6, r7}
 800232a:	bc08      	pop	{r3}
 800232c:	469e      	mov	lr, r3
 800232e:	4770      	bx	lr
